Archive member included to satisfy reference by file (symbol)

c:/qmk_msys/mingw64/bin/../lib/gcc/avr/12.2.0/avr5\libgcc.a(_udivmodhi4.o)
                              .build/obj_custom_parallel_65_via/quantum/color.o (__udivmodhi4)
c:/qmk_msys/mingw64/bin/../lib/gcc/avr/12.2.0/avr5\libgcc.a(_divmodhi4.o)
                              .build/obj_custom_parallel_65_via/quantum/rgb_matrix/rgb_matrix.o (__divmodhi4)
c:/qmk_msys/mingw64/bin/../lib/gcc/avr/12.2.0/avr5\libgcc.a(_udivmodsi4.o)
                              .build/obj_custom_parallel_65_via/quantum/quantum.o (__udivmodsi4)
c:/qmk_msys/mingw64/bin/../lib/gcc/avr/12.2.0/avr5\libgcc.a(_divmodsi4.o)
                              .build/obj_custom_parallel_65_via/quantum/rgb_matrix/rgb_matrix.o (__divmodsi4)
c:/qmk_msys/mingw64/bin/../lib/gcc/avr/12.2.0/avr5\libgcc.a(_negsi2.o)
                              c:/qmk_msys/mingw64/bin/../lib/gcc/avr/12.2.0/avr5\libgcc.a(_divmodsi4.o) (__negsi2)
c:/qmk_msys/mingw64/bin/../lib/gcc/avr/12.2.0/avr5\libgcc.a(_exit.o)
                              c:/qmk_msys/mingw64/bin/../lib/gcc/avr/12.2.0/../../../../avr/lib/avr5/crtatmega32u4.o (exit)
c:/qmk_msys/mingw64/bin/../lib/gcc/avr/12.2.0/avr5\libgcc.a(_tablejump2.o)
                              .build/obj_custom_parallel_65_via/quantum/action.o (__tablejump2__)
c:/qmk_msys/mingw64/bin/../lib/gcc/avr/12.2.0/avr5\libgcc.a(_copy_data.o)
                              .build/obj_custom_parallel_65_via/.build/obj_custom_parallel_65_via/src/default_keyboard.o (__do_copy_data)
c:/qmk_msys/mingw64/bin/../lib/gcc/avr/12.2.0/avr5\libgcc.a(_clear_bss.o)
                              .build/obj_custom_parallel_65_via/quantum/quantum.o (__do_clear_bss)
c:/qmk_msys/mingw64/bin/../lib/gcc/avr/12.2.0/avr5\libgcc.a(_popcounthi2.o)
                              .build/obj_custom_parallel_65_via/quantum/bitwise.o (__popcounthi2)
c:/qmk_msys/mingw64/bin/../lib/gcc/avr/12.2.0/avr5\libgcc.a(_popcountsi2.o)
                              .build/obj_custom_parallel_65_via/quantum/bitwise.o (__popcountsi2)
c:/qmk_msys/mingw64/bin/../lib/gcc/avr/12.2.0/avr5\libgcc.a(_popcountqi2.o)
                              c:/qmk_msys/mingw64/bin/../lib/gcc/avr/12.2.0/avr5\libgcc.a(_popcounthi2.o) (__popcountqi2)
c:/qmk_msys/mingw64/bin/../lib/gcc/avr/12.2.0/avr5\libgcc.a(_bswapsi2.o)
                              .build/obj_custom_parallel_65_via/quantum/via.o (__bswapsi2)
c:/qmk_msys/mingw64/bin/../lib/gcc/avr/12.2.0/avr5\libgcc.a(_prologue.o)
                              .build/obj_custom_parallel_65_via/quantum/quantum.o (__prologue_saves__)
c:/qmk_msys/mingw64/bin/../lib/gcc/avr/12.2.0/avr5\libgcc.a(_epilogue.o)
                              .build/obj_custom_parallel_65_via/quantum/quantum.o (__epilogue_restores__)
c:/qmk_msys/mingw64/bin/../lib/gcc/avr/12.2.0/../../../../avr/lib/avr5\libc.a(memcmp.o)
                              .build/obj_custom_parallel_65_via/quantum/action_util.o (memcmp)
c:/qmk_msys/mingw64/bin/../lib/gcc/avr/12.2.0/../../../../avr/lib/avr5\libc.a(memcpy.o)
                              .build/obj_custom_parallel_65_via/quantum/debounce/sym_defer_g.o (memcpy)
c:/qmk_msys/mingw64/bin/../lib/gcc/avr/12.2.0/../../../../avr/lib/avr5\libc.a(memmove.o)
                              .build/obj_custom_parallel_65_via/lib/lufa/LUFA/Drivers/USB/Class/Common/HIDParser.o (memmove)
c:/qmk_msys/mingw64/bin/../lib/gcc/avr/12.2.0/../../../../avr/lib/avr5\libc.a(memset.o)
                              .build/obj_custom_parallel_65_via/quantum/rgb_matrix/rgb_matrix.o (memset)
c:/qmk_msys/mingw64/bin/../lib/gcc/avr/12.2.0/../../../../avr/lib/avr5\libatmega32u4.a(eerd_block.o)
                              .build/obj_custom_parallel_65_via/quantum/rgb_matrix/rgb_matrix.o (eeprom_read_block)
c:/qmk_msys/mingw64/bin/../lib/gcc/avr/12.2.0/../../../../avr/lib/avr5\libatmega32u4.a(eerd_byte.o)
                              .build/obj_custom_parallel_65_via/quantum/eeconfig.o (eeprom_read_byte)
c:/qmk_msys/mingw64/bin/../lib/gcc/avr/12.2.0/../../../../avr/lib/avr5\libatmega32u4.a(eerd_dword.o)
                              .build/obj_custom_parallel_65_via/quantum/eeconfig.o (eeprom_read_dword)
c:/qmk_msys/mingw64/bin/../lib/gcc/avr/12.2.0/../../../../avr/lib/avr5\libatmega32u4.a(eerd_word.o)
                              .build/obj_custom_parallel_65_via/quantum/eeconfig.o (eeprom_read_word)
c:/qmk_msys/mingw64/bin/../lib/gcc/avr/12.2.0/../../../../avr/lib/avr5\libatmega32u4.a(eeupd_block.o)
                              .build/obj_custom_parallel_65_via/quantum/eeconfig.o (eeprom_update_block)
c:/qmk_msys/mingw64/bin/../lib/gcc/avr/12.2.0/../../../../avr/lib/avr5\libatmega32u4.a(eeupd_byte.o)
                              .build/obj_custom_parallel_65_via/quantum/eeconfig.o (eeprom_update_byte)
c:/qmk_msys/mingw64/bin/../lib/gcc/avr/12.2.0/../../../../avr/lib/avr5\libatmega32u4.a(eeupd_dword.o)
                              .build/obj_custom_parallel_65_via/quantum/eeconfig.o (eeprom_update_dword)
c:/qmk_msys/mingw64/bin/../lib/gcc/avr/12.2.0/../../../../avr/lib/avr5\libatmega32u4.a(eeupd_word.o)
                              .build/obj_custom_parallel_65_via/quantum/eeconfig.o (eeprom_update_word)

Allocating common symbols
Common symbol       size              file

rgb_matrix_config   0x8               .build/obj_custom_parallel_65_via/quantum/rgb_matrix/rgb_matrix.o
USB_IsInitialized   0x1               .build/obj_custom_parallel_65_via/lib/lufa/LUFA/Drivers/USB/Core/USBTask.o
keymap_config       0x2               .build/obj_custom_parallel_65_via/quantum/keycode_config.o
USB_DeviceState     0x1               .build/obj_custom_parallel_65_via/lib/lufa/LUFA/Drivers/USB/Core/USBTask.o
USB_Device_ConfigurationNumber
                    0x1               .build/obj_custom_parallel_65_via/lib/lufa/LUFA/Drivers/USB/Core/DeviceStandardReq.o
g_rgb_timer         0x4               .build/obj_custom_parallel_65_via/quantum/rgb_matrix/rgb_matrix.o
raw_matrix          0xa               .build/obj_custom_parallel_65_via/quantum/matrix_common.o
USB_Device_CurrentlySelfPowered
                    0x1               .build/obj_custom_parallel_65_via/lib/lufa/LUFA/Drivers/USB/Core/DeviceStandardReq.o
rgb_matrix_ws2812_array
                    0xf6              .build/obj_custom_parallel_65_via/quantum/rgb_matrix/rgb_matrix_drivers.o
matrix              0xa               .build/obj_custom_parallel_65_via/quantum/matrix_common.o
USB_ControlRequest  0x8               .build/obj_custom_parallel_65_via/lib/lufa/LUFA/Drivers/USB/Core/USBTask.o
tp_buttons          0x2               .build/obj_custom_parallel_65_via/quantum/action.o
g_last_hit_tracker  0x29              .build/obj_custom_parallel_65_via/quantum/rgb_matrix/rgb_matrix.o
USB_Device_RemoteWakeupEnabled
                    0x1               .build/obj_custom_parallel_65_via/lib/lufa/LUFA/Drivers/USB/Core/DeviceStandardReq.o
timer_count         0x4               .build/obj_custom_parallel_65_via/platforms/avr/timer.o

Discarded input sections

 .data          0x00000000        0x0 c:/qmk_msys/mingw64/bin/../lib/gcc/avr/12.2.0/../../../../avr/lib/avr5/crtatmega32u4.o
 .bss           0x00000000        0x0 c:/qmk_msys/mingw64/bin/../lib/gcc/avr/12.2.0/../../../../avr/lib/avr5/crtatmega32u4.o
 .text          0x00000000        0x0 .build/obj_custom_parallel_65_via/.build/obj_custom_parallel_65_via/src/default_keyboard.o
 .data          0x00000000        0x0 .build/obj_custom_parallel_65_via/.build/obj_custom_parallel_65_via/src/default_keyboard.o
 .bss           0x00000000        0x0 .build/obj_custom_parallel_65_via/.build/obj_custom_parallel_65_via/src/default_keyboard.o
 .text          0x00000000        0x0 .build/obj_custom_parallel_65_via/quantum/keymap_introspection.o
 .data          0x00000000        0x0 .build/obj_custom_parallel_65_via/quantum/keymap_introspection.o
 .bss           0x00000000        0x0 .build/obj_custom_parallel_65_via/quantum/keymap_introspection.o
 .text.keymap_layer_count_raw
                0x00000000        0x4 .build/obj_custom_parallel_65_via/quantum/keymap_introspection.o
 .text.keymap_layer_count
                0x00000000        0x4 .build/obj_custom_parallel_65_via/quantum/keymap_introspection.o
 .text.keycode_at_keymap_location
                0x00000000        0x6 .build/obj_custom_parallel_65_via/quantum/keymap_introspection.o
 .text          0x00000000        0x0 .build/obj_custom_parallel_65_via/quantum/quantum.o
 .data          0x00000000        0x0 .build/obj_custom_parallel_65_via/quantum/quantum.o
 .bss           0x00000000        0x0 .build/obj_custom_parallel_65_via/quantum/quantum.o
 .text.extract_mod_bits
                0x00000000       0x54 .build/obj_custom_parallel_65_via/quantum/quantum.o
 .text.do_code16
                0x00000000       0x14 .build/obj_custom_parallel_65_via/quantum/quantum.o
 .text.register_code16
                0x00000000       0x2c .build/obj_custom_parallel_65_via/quantum/quantum.o
 .text.unregister_code16
                0x00000000       0x2c .build/obj_custom_parallel_65_via/quantum/quantum.o
 .text.tap_code16_delay
                0x00000000       0x34 .build/obj_custom_parallel_65_via/quantum/quantum.o
 .text.tap_code16
                0x00000000       0x14 .build/obj_custom_parallel_65_via/quantum/quantum.o
 .text.set_single_persistent_default_layer
                0x00000000       0x22 .build/obj_custom_parallel_65_via/quantum/quantum.o
 .text.get_numeric_str
                0x00000000       0xea .build/obj_custom_parallel_65_via/quantum/quantum.o
 .text.get_u8_str
                0x00000000       0x3a .build/obj_custom_parallel_65_via/quantum/quantum.o
 .text.get_u16_str
                0x00000000       0x42 .build/obj_custom_parallel_65_via/quantum/quantum.o
 .bss.buf.0     0x00000000        0x6 .build/obj_custom_parallel_65_via/quantum/quantum.o
 .bss.last_pad.1
                0x00000000        0x1 .build/obj_custom_parallel_65_via/quantum/quantum.o
 .data.last_num.2
                0x00000000        0x2 .build/obj_custom_parallel_65_via/quantum/quantum.o
 .bss.buf.3     0x00000000        0x4 .build/obj_custom_parallel_65_via/quantum/quantum.o
 .bss.last_pad.4
                0x00000000        0x1 .build/obj_custom_parallel_65_via/quantum/quantum.o
 .data.last_num.5
                0x00000000        0x1 .build/obj_custom_parallel_65_via/quantum/quantum.o
 .text          0x00000000        0x0 .build/obj_custom_parallel_65_via/quantum/bitwise.o
 .data          0x00000000        0x0 .build/obj_custom_parallel_65_via/quantum/bitwise.o
 .bss           0x00000000        0x0 .build/obj_custom_parallel_65_via/quantum/bitwise.o
 .text.bitpop   0x00000000        0x8 .build/obj_custom_parallel_65_via/quantum/bitwise.o
 .text.bitpop16
                0x00000000        0x6 .build/obj_custom_parallel_65_via/quantum/bitwise.o
 .text.bitpop32
                0x00000000        0x6 .build/obj_custom_parallel_65_via/quantum/bitwise.o
 .text.biton    0x00000000       0x24 .build/obj_custom_parallel_65_via/quantum/bitwise.o
 .text.biton16  0x00000000       0x48 .build/obj_custom_parallel_65_via/quantum/bitwise.o
 .text.biton32  0x00000000       0x96 .build/obj_custom_parallel_65_via/quantum/bitwise.o
 .text.bitrev   0x00000000       0x28 .build/obj_custom_parallel_65_via/quantum/bitwise.o
 .text.bitrev16
                0x00000000       0x1a .build/obj_custom_parallel_65_via/quantum/bitwise.o
 .text.bitrev32
                0x00000000       0x4a .build/obj_custom_parallel_65_via/quantum/bitwise.o
 .debug_info    0x00000000      0x2e1 .build/obj_custom_parallel_65_via/quantum/bitwise.o
 .debug_abbrev  0x00000000       0xec .build/obj_custom_parallel_65_via/quantum/bitwise.o
 .debug_loc     0x00000000      0x4e0 .build/obj_custom_parallel_65_via/quantum/bitwise.o
 .debug_aranges
                0x00000000       0x60 .build/obj_custom_parallel_65_via/quantum/bitwise.o
 .debug_ranges  0x00000000       0x50 .build/obj_custom_parallel_65_via/quantum/bitwise.o
 .debug_line    0x00000000      0x549 .build/obj_custom_parallel_65_via/quantum/bitwise.o
 .debug_str     0x00000000      0x24c .build/obj_custom_parallel_65_via/quantum/bitwise.o
 .comment       0x00000000       0x13 .build/obj_custom_parallel_65_via/quantum/bitwise.o
 .debug_frame   0x00000000       0xc8 .build/obj_custom_parallel_65_via/quantum/bitwise.o
 .text          0x00000000        0x0 .build/obj_custom_parallel_65_via/quantum/led.o
 .data          0x00000000        0x0 .build/obj_custom_parallel_65_via/quantum/led.o
 .bss           0x00000000        0x0 .build/obj_custom_parallel_65_via/quantum/led.o
 .text.last_led_activity_time
                0x00000000       0x28 .build/obj_custom_parallel_65_via/quantum/led.o
 .text.last_led_activity_elapsed
                0x00000000       0x2c .build/obj_custom_parallel_65_via/quantum/led.o
 .text          0x00000000        0x0 .build/obj_custom_parallel_65_via/quantum/action.o
 .data          0x00000000        0x0 .build/obj_custom_parallel_65_via/quantum/action.o
 .bss           0x00000000        0x0 .build/obj_custom_parallel_65_via/quantum/action.o
 .text.process_record_quantum
                0x00000000        0x4 .build/obj_custom_parallel_65_via/quantum/action.o
 .text.post_process_record_quantum
                0x00000000        0x2 .build/obj_custom_parallel_65_via/quantum/action.o
 .text.process_record_nocache
                0x00000000       0x10 .build/obj_custom_parallel_65_via/quantum/action.o
 .text.register_weak_mods
                0x00000000        0xe .build/obj_custom_parallel_65_via/quantum/action.o
 .text.unregister_weak_mods
                0x00000000        0xe .build/obj_custom_parallel_65_via/quantum/action.o
 .text.debug_action
                0x00000000        0x2 .build/obj_custom_parallel_65_via/quantum/action.o
 COMMON         0x00000000        0x2 .build/obj_custom_parallel_65_via/quantum/action.o
 .text          0x00000000        0x0 .build/obj_custom_parallel_65_via/quantum/action_layer.o
 .data          0x00000000        0x0 .build/obj_custom_parallel_65_via/quantum/action_layer.o
 .bss           0x00000000        0x0 .build/obj_custom_parallel_65_via/quantum/action_layer.o
 .text.layer_state_is
                0x00000000       0x26 .build/obj_custom_parallel_65_via/quantum/action_layer.o
 .text.layer_state_cmp
                0x00000000       0x1e .build/obj_custom_parallel_65_via/quantum/action_layer.o
 .text          0x00000000        0x0 .build/obj_custom_parallel_65_via/quantum/action_tapping.o
 .data          0x00000000        0x0 .build/obj_custom_parallel_65_via/quantum/action_tapping.o
 .bss           0x00000000        0x0 .build/obj_custom_parallel_65_via/quantum/action_tapping.o
 .text          0x00000000        0x0 .build/obj_custom_parallel_65_via/quantum/action_util.o
 .data          0x00000000        0x0 .build/obj_custom_parallel_65_via/quantum/action_util.o
 .bss           0x00000000        0x0 .build/obj_custom_parallel_65_via/quantum/action_util.o
 .text.add_key  0x00000000        0x6 .build/obj_custom_parallel_65_via/quantum/action_util.o
 .text.del_key  0x00000000        0x6 .build/obj_custom_parallel_65_via/quantum/action_util.o
 .text.clear_keys
                0x00000000        0x6 .build/obj_custom_parallel_65_via/quantum/action_util.o
 .text.get_oneshot_locked_mods
                0x00000000        0x6 .build/obj_custom_parallel_65_via/quantum/action_util.o
 .text.has_oneshot_mods_timed_out
                0x00000000        0x4 .build/obj_custom_parallel_65_via/quantum/action_util.o
 .text.is_oneshot_enabled
                0x00000000        0xc .build/obj_custom_parallel_65_via/quantum/action_util.o
 .text.set_mods
                0x00000000        0x6 .build/obj_custom_parallel_65_via/quantum/action_util.o
 .text.get_weak_mods
                0x00000000        0x6 .build/obj_custom_parallel_65_via/quantum/action_util.o
 .text.set_weak_mods
                0x00000000        0x6 .build/obj_custom_parallel_65_via/quantum/action_util.o
 .text.get_oneshot_mods
                0x00000000        0x6 .build/obj_custom_parallel_65_via/quantum/action_util.o
 .text.add_oneshot_locked_mods
                0x00000000       0x1a .build/obj_custom_parallel_65_via/quantum/action_util.o
 .text.set_oneshot_locked_mods
                0x00000000       0x12 .build/obj_custom_parallel_65_via/quantum/action_util.o
 .text.clear_oneshot_locked_mods
                0x00000000       0x14 .build/obj_custom_parallel_65_via/quantum/action_util.o
 .text.set_oneshot_mods
                0x00000000       0x1a .build/obj_custom_parallel_65_via/quantum/action_util.o
 .text.has_anymod
                0x00000000        0xa .build/obj_custom_parallel_65_via/quantum/action_util.o
 .text          0x00000000        0x0 .build/obj_custom_parallel_65_via/quantum/eeconfig.o
 .data          0x00000000        0x0 .build/obj_custom_parallel_65_via/quantum/eeconfig.o
 .bss           0x00000000        0x0 .build/obj_custom_parallel_65_via/quantum/eeconfig.o
 .text.eeconfig_enable
                0x00000000        0xe .build/obj_custom_parallel_65_via/quantum/eeconfig.o
 .text.eeconfig_is_disabled
                0x00000000       0x1a .build/obj_custom_parallel_65_via/quantum/eeconfig.o
 .text.eeconfig_update_debug
                0x00000000        0xc .build/obj_custom_parallel_65_via/quantum/eeconfig.o
 .text.eeconfig_update_default_layer
                0x00000000        0xc .build/obj_custom_parallel_65_via/quantum/eeconfig.o
 .text.eeconfig_read_audio
                0x00000000        0xa .build/obj_custom_parallel_65_via/quantum/eeconfig.o
 .text.eeconfig_update_audio
                0x00000000        0xc .build/obj_custom_parallel_65_via/quantum/eeconfig.o
 .text.eeconfig_read_kb
                0x00000000        0xa .build/obj_custom_parallel_65_via/quantum/eeconfig.o
 .text.eeconfig_read_user
                0x00000000        0xa .build/obj_custom_parallel_65_via/quantum/eeconfig.o
 .text.eeconfig_read_haptic
                0x00000000        0xa .build/obj_custom_parallel_65_via/quantum/eeconfig.o
 .text.eeconfig_update_haptic
                0x00000000        0xe .build/obj_custom_parallel_65_via/quantum/eeconfig.o
 .text.eeconfig_read_handedness
                0x00000000       0x14 .build/obj_custom_parallel_65_via/quantum/eeconfig.o
 .text          0x00000000        0x0 .build/obj_custom_parallel_65_via/quantum/keyboard.o
 .data          0x00000000        0x0 .build/obj_custom_parallel_65_via/quantum/keyboard.o
 .bss           0x00000000        0x0 .build/obj_custom_parallel_65_via/quantum/keyboard.o
 .text.last_input_activity_time
                0x00000000       0x28 .build/obj_custom_parallel_65_via/quantum/keyboard.o
 .text.last_input_activity_elapsed
                0x00000000       0x2c .build/obj_custom_parallel_65_via/quantum/keyboard.o
 .text.last_matrix_activity_time
                0x00000000       0x28 .build/obj_custom_parallel_65_via/quantum/keyboard.o
 .text.last_matrix_activity_elapsed
                0x00000000       0x2c .build/obj_custom_parallel_65_via/quantum/keyboard.o
 .text.last_encoder_activity_time
                0x00000000       0x28 .build/obj_custom_parallel_65_via/quantum/keyboard.o
 .text.last_encoder_activity_elapsed
                0x00000000       0x2c .build/obj_custom_parallel_65_via/quantum/keyboard.o
 .text.last_encoder_activity_trigger
                0x00000000       0x26 .build/obj_custom_parallel_65_via/quantum/keyboard.o
 .text.last_pointing_device_activity_time
                0x00000000       0x28 .build/obj_custom_parallel_65_via/quantum/keyboard.o
 .text.last_pointing_device_activity_elapsed
                0x00000000       0x2c .build/obj_custom_parallel_65_via/quantum/keyboard.o
 .text.last_pointing_device_activity_trigger
                0x00000000       0x26 .build/obj_custom_parallel_65_via/quantum/keyboard.o
 .text.set_activity_timestamps
                0x00000000       0x94 .build/obj_custom_parallel_65_via/quantum/keyboard.o
 .text.is_keyboard_left
                0x00000000        0x6 .build/obj_custom_parallel_65_via/quantum/keyboard.o
 .text.switch_events
                0x00000000        0x6 .build/obj_custom_parallel_65_via/quantum/keyboard.o
 .text.quantum_task
                0x00000000        0x2 .build/obj_custom_parallel_65_via/quantum/keyboard.o
 .bss.last_pointing_device_modification_time
                0x00000000        0x4 .build/obj_custom_parallel_65_via/quantum/keyboard.o
 .bss.last_encoder_modification_time
                0x00000000        0x4 .build/obj_custom_parallel_65_via/quantum/keyboard.o
 .text          0x00000000        0x0 .build/obj_custom_parallel_65_via/quantum/keymap_common.o
 .data          0x00000000        0x0 .build/obj_custom_parallel_65_via/quantum/keymap_common.o
 .bss           0x00000000        0x0 .build/obj_custom_parallel_65_via/quantum/keymap_common.o
 .text          0x00000000        0x0 .build/obj_custom_parallel_65_via/quantum/keycode_config.o
 .data          0x00000000        0x0 .build/obj_custom_parallel_65_via/quantum/keycode_config.o
 .bss           0x00000000        0x0 .build/obj_custom_parallel_65_via/quantum/keycode_config.o
 .text          0x00000000        0x0 .build/obj_custom_parallel_65_via/quantum/sync_timer.o
 .data          0x00000000        0x0 .build/obj_custom_parallel_65_via/quantum/sync_timer.o
 .bss           0x00000000        0x0 .build/obj_custom_parallel_65_via/quantum/sync_timer.o
 .debug_info    0x00000000       0x5d .build/obj_custom_parallel_65_via/quantum/sync_timer.o
 .debug_abbrev  0x00000000       0x26 .build/obj_custom_parallel_65_via/quantum/sync_timer.o
 .debug_aranges
                0x00000000       0x18 .build/obj_custom_parallel_65_via/quantum/sync_timer.o
 .debug_line    0x00000000       0x32 .build/obj_custom_parallel_65_via/quantum/sync_timer.o
 .debug_str     0x00000000      0x1ee .build/obj_custom_parallel_65_via/quantum/sync_timer.o
 .comment       0x00000000       0x13 .build/obj_custom_parallel_65_via/quantum/sync_timer.o
 .text          0x00000000        0x0 .build/obj_custom_parallel_65_via/quantum/logging/debug.o
 .data          0x00000000        0x0 .build/obj_custom_parallel_65_via/quantum/logging/debug.o
 .bss           0x00000000        0x0 .build/obj_custom_parallel_65_via/quantum/logging/debug.o
 .text          0x00000000        0x0 .build/obj_custom_parallel_65_via/quantum/logging/sendchar.o
 .data          0x00000000        0x0 .build/obj_custom_parallel_65_via/quantum/logging/sendchar.o
 .bss           0x00000000        0x0 .build/obj_custom_parallel_65_via/quantum/logging/sendchar.o
 .text          0x00000000        0x0 .build/obj_custom_parallel_65_via/quantum/matrix_common.o
 .data          0x00000000        0x0 .build/obj_custom_parallel_65_via/quantum/matrix_common.o
 .bss           0x00000000        0x0 .build/obj_custom_parallel_65_via/quantum/matrix_common.o
 .text.matrix_rows
                0x00000000        0x4 .build/obj_custom_parallel_65_via/quantum/matrix_common.o
 .text.matrix_cols
                0x00000000        0x4 .build/obj_custom_parallel_65_via/quantum/matrix_common.o
 .text.matrix_is_on
                0x00000000       0x30 .build/obj_custom_parallel_65_via/quantum/matrix_common.o
 .text.matrix_init_custom
                0x00000000        0x2 .build/obj_custom_parallel_65_via/quantum/matrix_common.o
 .text.matrix_scan_custom
                0x00000000        0x4 .build/obj_custom_parallel_65_via/quantum/matrix_common.o
 .text.matrix_init
                0x00000000       0x2c .build/obj_custom_parallel_65_via/quantum/matrix_common.o
 .text.matrix_scan
                0x00000000       0x26 .build/obj_custom_parallel_65_via/quantum/matrix_common.o
 .text.peek_matrix
                0x00000000       0x38 .build/obj_custom_parallel_65_via/quantum/matrix_common.o
 .text          0x00000000        0x0 .build/obj_custom_parallel_65_via/quantum/matrix.o
 .data          0x00000000        0x0 .build/obj_custom_parallel_65_via/quantum/matrix.o
 .bss           0x00000000        0x0 .build/obj_custom_parallel_65_via/quantum/matrix.o
 .text          0x00000000        0x0 .build/obj_custom_parallel_65_via/quantum/debounce/sym_defer_g.o
 .data          0x00000000        0x0 .build/obj_custom_parallel_65_via/quantum/debounce/sym_defer_g.o
 .bss           0x00000000        0x0 .build/obj_custom_parallel_65_via/quantum/debounce/sym_defer_g.o
 .text.debounce_free
                0x00000000        0x2 .build/obj_custom_parallel_65_via/quantum/debounce/sym_defer_g.o
 .text          0x00000000        0x0 .build/obj_custom_parallel_65_via/quantum/main.o
 .data          0x00000000        0x0 .build/obj_custom_parallel_65_via/quantum/main.o
 .bss           0x00000000        0x0 .build/obj_custom_parallel_65_via/quantum/main.o
 .text          0x00000000      0x15c .build/obj_custom_parallel_65_via/platforms/avr/xprintf.o
 .data          0x00000000        0x0 .build/obj_custom_parallel_65_via/platforms/avr/xprintf.o
 .text          0x00000000        0x0 .build/obj_custom_parallel_65_via/platforms/avr/printf.o
 .data          0x00000000        0x0 .build/obj_custom_parallel_65_via/platforms/avr/printf.o
 .bss           0x00000000        0x0 .build/obj_custom_parallel_65_via/platforms/avr/printf.o
 .text          0x00000000        0x0 .build/obj_custom_parallel_65_via/quantum/color.o
 .data          0x00000000        0x0 .build/obj_custom_parallel_65_via/quantum/color.o
 .bss           0x00000000        0x0 .build/obj_custom_parallel_65_via/quantum/color.o
 .text.hsv_to_rgb_nocie
                0x00000000        0x8 .build/obj_custom_parallel_65_via/quantum/color.o
 .text          0x00000000        0x0 .build/obj_custom_parallel_65_via/quantum/rgb_matrix/rgb_matrix.o
 .data          0x00000000        0x0 .build/obj_custom_parallel_65_via/quantum/rgb_matrix/rgb_matrix.o
 .bss           0x00000000        0x0 .build/obj_custom_parallel_65_via/quantum/rgb_matrix/rgb_matrix.o
 .text.sin8_avr
                0x00000000       0x3e .build/obj_custom_parallel_65_via/quantum/rgb_matrix/rgb_matrix.o
 .text.eeconfig_check_valid_rgb_matrix
                0x00000000        0x4 .build/obj_custom_parallel_65_via/quantum/rgb_matrix/rgb_matrix.o
 .text.eeconfig_post_flush_rgb_matrix
                0x00000000        0x2 .build/obj_custom_parallel_65_via/quantum/rgb_matrix/rgb_matrix.o
 .text.eeconfig_debug_rgb_matrix
                0x00000000        0x2 .build/obj_custom_parallel_65_via/quantum/rgb_matrix/rgb_matrix.o
 .text.rgb_matrix_test
                0x00000000       0x5e .build/obj_custom_parallel_65_via/quantum/rgb_matrix/rgb_matrix.o
 .text.rgb_matrix_indicators
                0x00000000        0x6 .build/obj_custom_parallel_65_via/quantum/rgb_matrix/rgb_matrix.o
 .text.effect_runner_sin_cos_i
                0x00000000       0xb0 .build/obj_custom_parallel_65_via/quantum/rgb_matrix/rgb_matrix.o
 .text.effect_runner_reactive
                0x00000000       0xde .build/obj_custom_parallel_65_via/quantum/rgb_matrix/rgb_matrix.o
 .text.rgb_matrix_get_suspend_state
                0x00000000        0x6 .build/obj_custom_parallel_65_via/quantum/rgb_matrix/rgb_matrix.o
 .text.rgb_matrix_enable
                0x00000000        0xc .build/obj_custom_parallel_65_via/quantum/rgb_matrix/rgb_matrix.o
 .text.rgb_matrix_disable
                0x00000000        0xc .build/obj_custom_parallel_65_via/quantum/rgb_matrix/rgb_matrix.o
 .text.rgb_matrix_reload_from_eeprom
                0x00000000       0x34 .build/obj_custom_parallel_65_via/quantum/rgb_matrix/rgb_matrix.o
 .text.rgb_matrix_step_noeeprom
                0x00000000        0x8 .build/obj_custom_parallel_65_via/quantum/rgb_matrix/rgb_matrix.o
 .text.rgb_matrix_step_reverse_noeeprom
                0x00000000        0x8 .build/obj_custom_parallel_65_via/quantum/rgb_matrix/rgb_matrix.o
 .text.rgb_matrix_sethsv
                0x00000000        0x8 .build/obj_custom_parallel_65_via/quantum/rgb_matrix/rgb_matrix.o
 .text.rgb_matrix_get_hsv
                0x00000000        0xe .build/obj_custom_parallel_65_via/quantum/rgb_matrix/rgb_matrix.o
 .text.rgb_matrix_increase_hue_noeeprom
                0x00000000        0x8 .build/obj_custom_parallel_65_via/quantum/rgb_matrix/rgb_matrix.o
 .text.rgb_matrix_decrease_hue_noeeprom
                0x00000000        0x8 .build/obj_custom_parallel_65_via/quantum/rgb_matrix/rgb_matrix.o
 .text.rgb_matrix_increase_sat_noeeprom
                0x00000000        0x8 .build/obj_custom_parallel_65_via/quantum/rgb_matrix/rgb_matrix.o
 .text.rgb_matrix_decrease_sat_noeeprom
                0x00000000        0x8 .build/obj_custom_parallel_65_via/quantum/rgb_matrix/rgb_matrix.o
 .text.rgb_matrix_increase_val_noeeprom
                0x00000000        0x8 .build/obj_custom_parallel_65_via/quantum/rgb_matrix/rgb_matrix.o
 .text.rgb_matrix_decrease_val_noeeprom
                0x00000000        0x8 .build/obj_custom_parallel_65_via/quantum/rgb_matrix/rgb_matrix.o
 .text.rgb_matrix_set_speed_eeprom_helper
                0x00000000        0xc .build/obj_custom_parallel_65_via/quantum/rgb_matrix/rgb_matrix.o
 .text.rgb_matrix_set_speed
                0x00000000        0xc .build/obj_custom_parallel_65_via/quantum/rgb_matrix/rgb_matrix.o
 .text.rgb_matrix_increase_speed_noeeprom
                0x00000000        0x8 .build/obj_custom_parallel_65_via/quantum/rgb_matrix/rgb_matrix.o
 .text.rgb_matrix_decrease_speed_noeeprom
                0x00000000        0x8 .build/obj_custom_parallel_65_via/quantum/rgb_matrix/rgb_matrix.o
 .text.rgb_matrix_set_flags_eeprom_helper
                0x00000000        0xc .build/obj_custom_parallel_65_via/quantum/rgb_matrix/rgb_matrix.o
 .text.rgb_matrix_get_flags
                0x00000000        0x6 .build/obj_custom_parallel_65_via/quantum/rgb_matrix/rgb_matrix.o
 .text.rgb_matrix_set_flags
                0x00000000        0xc .build/obj_custom_parallel_65_via/quantum/rgb_matrix/rgb_matrix.o
 .text.rgb_matrix_set_flags_noeeprom
                0x00000000        0xc .build/obj_custom_parallel_65_via/quantum/rgb_matrix/rgb_matrix.o
 .rodata.k_rgb_matrix_center
                0x00000000        0x2 .build/obj_custom_parallel_65_via/quantum/rgb_matrix/rgb_matrix.o
 .rodata.b_m16_interleave
                0x00000000        0x8 .build/obj_custom_parallel_65_via/quantum/rgb_matrix/rgb_matrix.o
 .text          0x00000000        0x0 .build/obj_custom_parallel_65_via/quantum/rgb_matrix/rgb_matrix_drivers.o
 .data          0x00000000        0x0 .build/obj_custom_parallel_65_via/quantum/rgb_matrix/rgb_matrix_drivers.o
 .bss           0x00000000        0x0 .build/obj_custom_parallel_65_via/quantum/rgb_matrix/rgb_matrix_drivers.o
 .text          0x00000000        0x0 .build/obj_custom_parallel_65_via/quantum/process_keycode/process_rgb.o
 .data          0x00000000        0x0 .build/obj_custom_parallel_65_via/quantum/process_keycode/process_rgb.o
 .bss           0x00000000        0x0 .build/obj_custom_parallel_65_via/quantum/process_keycode/process_rgb.o
 .text          0x00000000        0x0 .build/obj_custom_parallel_65_via/quantum/led_tables.o
 .data          0x00000000        0x0 .build/obj_custom_parallel_65_via/quantum/led_tables.o
 .bss           0x00000000        0x0 .build/obj_custom_parallel_65_via/quantum/led_tables.o
 .text          0x00000000        0x0 .build/obj_custom_parallel_65_via/lib/lib8tion/lib8tion.o
 .data          0x00000000        0x0 .build/obj_custom_parallel_65_via/lib/lib8tion/lib8tion.o
 .bss           0x00000000        0x0 .build/obj_custom_parallel_65_via/lib/lib8tion/lib8tion.o
 .text.memset8  0x00000000       0x16 .build/obj_custom_parallel_65_via/lib/lib8tion/lib8tion.o
 .text.memcpy8  0x00000000       0x1c .build/obj_custom_parallel_65_via/lib/lib8tion/lib8tion.o
 .text.memmove8
                0x00000000       0x30 .build/obj_custom_parallel_65_via/lib/lib8tion/lib8tion.o
 .data.rand16seed
                0x00000000        0x2 .build/obj_custom_parallel_65_via/lib/lib8tion/lib8tion.o
 .debug_info    0x00000000      0x1cb .build/obj_custom_parallel_65_via/lib/lib8tion/lib8tion.o
 .debug_abbrev  0x00000000       0xd9 .build/obj_custom_parallel_65_via/lib/lib8tion/lib8tion.o
 .debug_loc     0x00000000       0xe8 .build/obj_custom_parallel_65_via/lib/lib8tion/lib8tion.o
 .debug_aranges
                0x00000000       0x30 .build/obj_custom_parallel_65_via/lib/lib8tion/lib8tion.o
 .debug_ranges  0x00000000       0x20 .build/obj_custom_parallel_65_via/lib/lib8tion/lib8tion.o
 .debug_line    0x00000000      0x12b .build/obj_custom_parallel_65_via/lib/lib8tion/lib8tion.o
 .debug_str     0x00000000      0x220 .build/obj_custom_parallel_65_via/lib/lib8tion/lib8tion.o
 .comment       0x00000000       0x13 .build/obj_custom_parallel_65_via/lib/lib8tion/lib8tion.o
 .debug_frame   0x00000000       0x44 .build/obj_custom_parallel_65_via/lib/lib8tion/lib8tion.o
 .text          0x00000000        0x0 .build/obj_custom_parallel_65_via/ws2812_bitbang.o
 .data          0x00000000        0x0 .build/obj_custom_parallel_65_via/ws2812_bitbang.o
 .bss           0x00000000        0x0 .build/obj_custom_parallel_65_via/ws2812_bitbang.o
 .text          0x00000000        0x0 .build/obj_custom_parallel_65_via/quantum/bootmagic/bootmagic.o
 .data          0x00000000        0x0 .build/obj_custom_parallel_65_via/quantum/bootmagic/bootmagic.o
 .bss           0x00000000        0x0 .build/obj_custom_parallel_65_via/quantum/bootmagic/bootmagic.o
 .text          0x00000000        0x0 .build/obj_custom_parallel_65_via/quantum/dynamic_keymap.o
 .data          0x00000000        0x0 .build/obj_custom_parallel_65_via/quantum/dynamic_keymap.o
 .bss           0x00000000        0x0 .build/obj_custom_parallel_65_via/quantum/dynamic_keymap.o
 .text          0x00000000        0x0 .build/obj_custom_parallel_65_via/quantum/process_keycode/process_grave_esc.o
 .data          0x00000000        0x0 .build/obj_custom_parallel_65_via/quantum/process_keycode/process_grave_esc.o
 .bss           0x00000000        0x0 .build/obj_custom_parallel_65_via/quantum/process_keycode/process_grave_esc.o
 .text          0x00000000        0x0 .build/obj_custom_parallel_65_via/quantum/process_keycode/process_magic.o
 .data          0x00000000        0x0 .build/obj_custom_parallel_65_via/quantum/process_keycode/process_magic.o
 .bss           0x00000000        0x0 .build/obj_custom_parallel_65_via/quantum/process_keycode/process_magic.o
 .text          0x00000000        0x0 .build/obj_custom_parallel_65_via/quantum/mousekey.o
 .data          0x00000000        0x0 .build/obj_custom_parallel_65_via/quantum/mousekey.o
 .bss           0x00000000        0x0 .build/obj_custom_parallel_65_via/quantum/mousekey.o
 .text.mousekey_get_report
                0x00000000       0x36 .build/obj_custom_parallel_65_via/quantum/mousekey.o
 .text          0x00000000        0x0 .build/obj_custom_parallel_65_via/quantum/send_string/send_string.o
 .data          0x00000000        0x0 .build/obj_custom_parallel_65_via/quantum/send_string/send_string.o
 .bss           0x00000000        0x0 .build/obj_custom_parallel_65_via/quantum/send_string/send_string.o
 .text.send_string
                0x00000000        0x8 .build/obj_custom_parallel_65_via/quantum/send_string/send_string.o
 .text.send_char
                0x00000000        0x8 .build/obj_custom_parallel_65_via/quantum/send_string/send_string.o
 .text.send_nibble
                0x00000000       0x16 .build/obj_custom_parallel_65_via/quantum/send_string/send_string.o
 .text.send_byte
                0x00000000       0x18 .build/obj_custom_parallel_65_via/quantum/send_string/send_string.o
 .text.send_word
                0x00000000       0x14 .build/obj_custom_parallel_65_via/quantum/send_string/send_string.o
 .text.send_dword
                0x00000000       0x1a .build/obj_custom_parallel_65_via/quantum/send_string/send_string.o
 .text.tap_random_base64
                0x00000000       0x54 .build/obj_custom_parallel_65_via/quantum/send_string/send_string.o
 .text.send_string_with_delay_P
                0x00000000       0xc2 .build/obj_custom_parallel_65_via/quantum/send_string/send_string.o
 .text.send_string_P
                0x00000000        0x8 .build/obj_custom_parallel_65_via/quantum/send_string/send_string.o
 .text          0x00000000        0x0 .build/obj_custom_parallel_65_via/quantum/process_keycode/process_space_cadet.o
 .data          0x00000000        0x0 .build/obj_custom_parallel_65_via/quantum/process_keycode/process_space_cadet.o
 .bss           0x00000000        0x0 .build/obj_custom_parallel_65_via/quantum/process_keycode/process_space_cadet.o
 .text.reset_space_cadet
                0x00000000        0x6 .build/obj_custom_parallel_65_via/quantum/process_keycode/process_space_cadet.o
 .text          0x00000000        0x0 .build/obj_custom_parallel_65_via/quantum/process_keycode/process_tri_layer.o
 .data          0x00000000        0x0 .build/obj_custom_parallel_65_via/quantum/process_keycode/process_tri_layer.o
 .bss           0x00000000        0x0 .build/obj_custom_parallel_65_via/quantum/process_keycode/process_tri_layer.o
 .text          0x00000000        0x0 .build/obj_custom_parallel_65_via/quantum/tri_layer.o
 .data          0x00000000        0x0 .build/obj_custom_parallel_65_via/quantum/tri_layer.o
 .bss           0x00000000        0x0 .build/obj_custom_parallel_65_via/quantum/tri_layer.o
 .text.set_tri_layer_lower_layer
                0x00000000        0x6 .build/obj_custom_parallel_65_via/quantum/tri_layer.o
 .text.set_tri_layer_upper_layer
                0x00000000        0x6 .build/obj_custom_parallel_65_via/quantum/tri_layer.o
 .text.set_tri_layer_adjust_layer
                0x00000000        0x6 .build/obj_custom_parallel_65_via/quantum/tri_layer.o
 .text.set_tri_layer_layers
                0x00000000        0xe .build/obj_custom_parallel_65_via/quantum/tri_layer.o
 .text          0x00000000        0x0 .build/obj_custom_parallel_65_via/quantum/via.o
 .data          0x00000000        0x0 .build/obj_custom_parallel_65_via/quantum/via.o
 .bss           0x00000000        0x0 .build/obj_custom_parallel_65_via/quantum/via.o
 .text.via_qmk_rgb_matrix_save
                0x00000000        0x6 .build/obj_custom_parallel_65_via/quantum/via.o
 .text          0x00000000        0x0 .build/obj_custom_parallel_65_via/protocol/host.o
 .data          0x00000000        0x0 .build/obj_custom_parallel_65_via/protocol/host.o
 .bss           0x00000000        0x0 .build/obj_custom_parallel_65_via/protocol/host.o
 .text.host_get_driver
                0x00000000        0xa .build/obj_custom_parallel_65_via/protocol/host.o
 .text.host_nkro_send
                0x00000000       0x1e .build/obj_custom_parallel_65_via/protocol/host.o
 .text.send_joystick
                0x00000000        0x2 .build/obj_custom_parallel_65_via/protocol/host.o
 .text.send_digitizer
                0x00000000        0x2 .build/obj_custom_parallel_65_via/protocol/host.o
 .text.send_programmable_button
                0x00000000        0x2 .build/obj_custom_parallel_65_via/protocol/host.o
 .text.host_last_system_usage
                0x00000000        0xa .build/obj_custom_parallel_65_via/protocol/host.o
 .text.host_last_consumer_usage
                0x00000000        0xa .build/obj_custom_parallel_65_via/protocol/host.o
 .text          0x00000000        0x0 .build/obj_custom_parallel_65_via/protocol/report.o
 .data          0x00000000        0x0 .build/obj_custom_parallel_65_via/protocol/report.o
 .bss           0x00000000        0x0 .build/obj_custom_parallel_65_via/protocol/report.o
 .text.get_first_key
                0x00000000        0xc .build/obj_custom_parallel_65_via/protocol/report.o
 .text          0x00000000        0x0 .build/obj_custom_parallel_65_via/protocol/usb_device_state.o
 .data          0x00000000        0x0 .build/obj_custom_parallel_65_via/protocol/usb_device_state.o
 .bss           0x00000000        0x0 .build/obj_custom_parallel_65_via/protocol/usb_device_state.o
 .text          0x00000000        0x0 .build/obj_custom_parallel_65_via/protocol/usb_util.o
 .data          0x00000000        0x0 .build/obj_custom_parallel_65_via/protocol/usb_util.o
 .bss           0x00000000        0x0 .build/obj_custom_parallel_65_via/protocol/usb_util.o
 .text.usb_disconnect
                0x00000000        0x2 .build/obj_custom_parallel_65_via/protocol/usb_util.o
 .text.usb_connected_state
                0x00000000        0x4 .build/obj_custom_parallel_65_via/protocol/usb_util.o
 .text.usb_vbus_state
                0x00000000        0x4 .build/obj_custom_parallel_65_via/protocol/usb_util.o
 .debug_info    0x00000000       0xaf .build/obj_custom_parallel_65_via/protocol/usb_util.o
 .debug_abbrev  0x00000000       0x7e .build/obj_custom_parallel_65_via/protocol/usb_util.o
 .debug_aranges
                0x00000000       0x30 .build/obj_custom_parallel_65_via/protocol/usb_util.o
 .debug_ranges  0x00000000       0x20 .build/obj_custom_parallel_65_via/protocol/usb_util.o
 .debug_line    0x00000000       0x89 .build/obj_custom_parallel_65_via/protocol/usb_util.o
 .debug_str     0x00000000      0x228 .build/obj_custom_parallel_65_via/protocol/usb_util.o
 .comment       0x00000000       0x13 .build/obj_custom_parallel_65_via/protocol/usb_util.o
 .debug_frame   0x00000000       0x44 .build/obj_custom_parallel_65_via/protocol/usb_util.o
 .text          0x00000000        0x0 .build/obj_custom_parallel_65_via/platforms/suspend.o
 .data          0x00000000        0x0 .build/obj_custom_parallel_65_via/platforms/suspend.o
 .bss           0x00000000        0x0 .build/obj_custom_parallel_65_via/platforms/suspend.o
 .text          0x00000000        0x0 .build/obj_custom_parallel_65_via/platforms/synchronization_util.o
 .data          0x00000000        0x0 .build/obj_custom_parallel_65_via/platforms/synchronization_util.o
 .bss           0x00000000        0x0 .build/obj_custom_parallel_65_via/platforms/synchronization_util.o
 .debug_line    0x00000000        0x0 .build/obj_custom_parallel_65_via/platforms/synchronization_util.o
 .debug_str     0x00000000      0x18d .build/obj_custom_parallel_65_via/platforms/synchronization_util.o
 .comment       0x00000000       0x13 .build/obj_custom_parallel_65_via/platforms/synchronization_util.o
 .text          0x00000000        0x0 .build/obj_custom_parallel_65_via/platforms/timer.o
 .data          0x00000000        0x0 .build/obj_custom_parallel_65_via/platforms/timer.o
 .bss           0x00000000        0x0 .build/obj_custom_parallel_65_via/platforms/timer.o
 .text.timer_read_fast
                0x00000000        0x6 .build/obj_custom_parallel_65_via/platforms/timer.o
 .text.timer_elapsed_fast
                0x00000000        0x6 .build/obj_custom_parallel_65_via/platforms/timer.o
 .debug_info    0x00000000      0x111 .build/obj_custom_parallel_65_via/platforms/timer.o
 .debug_abbrev  0x00000000       0xde .build/obj_custom_parallel_65_via/platforms/timer.o
 .debug_loc     0x00000000       0x2a .build/obj_custom_parallel_65_via/platforms/timer.o
 .debug_aranges
                0x00000000       0x28 .build/obj_custom_parallel_65_via/platforms/timer.o
 .debug_ranges  0x00000000       0x18 .build/obj_custom_parallel_65_via/platforms/timer.o
 .debug_line    0x00000000       0xc0 .build/obj_custom_parallel_65_via/platforms/timer.o
 .debug_str     0x00000000      0x23c .build/obj_custom_parallel_65_via/platforms/timer.o
 .comment       0x00000000       0x13 .build/obj_custom_parallel_65_via/platforms/timer.o
 .debug_frame   0x00000000       0x34 .build/obj_custom_parallel_65_via/platforms/timer.o
 .text          0x00000000        0x0 .build/obj_custom_parallel_65_via/platforms/avr/hardware_id.o
 .data          0x00000000        0x0 .build/obj_custom_parallel_65_via/platforms/avr/hardware_id.o
 .bss           0x00000000        0x0 .build/obj_custom_parallel_65_via/platforms/avr/hardware_id.o
 .text.get_hardware_id
                0x00000000       0x4c .build/obj_custom_parallel_65_via/platforms/avr/hardware_id.o
 .debug_info    0x00000000      0x122 .build/obj_custom_parallel_65_via/platforms/avr/hardware_id.o
 .debug_abbrev  0x00000000       0xcb .build/obj_custom_parallel_65_via/platforms/avr/hardware_id.o
 .debug_loc     0x00000000       0x87 .build/obj_custom_parallel_65_via/platforms/avr/hardware_id.o
 .debug_aranges
                0x00000000       0x20 .build/obj_custom_parallel_65_via/platforms/avr/hardware_id.o
 .debug_ranges  0x00000000       0x40 .build/obj_custom_parallel_65_via/platforms/avr/hardware_id.o
 .debug_line    0x00000000      0x165 .build/obj_custom_parallel_65_via/platforms/avr/hardware_id.o
 .debug_str     0x00000000      0x241 .build/obj_custom_parallel_65_via/platforms/avr/hardware_id.o
 .comment       0x00000000       0x13 .build/obj_custom_parallel_65_via/platforms/avr/hardware_id.o
 .debug_frame   0x00000000       0x2c .build/obj_custom_parallel_65_via/platforms/avr/hardware_id.o
 .text          0x00000000        0x0 .build/obj_custom_parallel_65_via/platforms/avr/platform.o
 .data          0x00000000        0x0 .build/obj_custom_parallel_65_via/platforms/avr/platform.o
 .bss           0x00000000        0x0 .build/obj_custom_parallel_65_via/platforms/avr/platform.o
 .text          0x00000000        0x0 .build/obj_custom_parallel_65_via/platforms/avr/suspend.o
 .data          0x00000000        0x0 .build/obj_custom_parallel_65_via/platforms/avr/suspend.o
 .bss           0x00000000        0x0 .build/obj_custom_parallel_65_via/platforms/avr/suspend.o
 .text          0x00000000        0x0 .build/obj_custom_parallel_65_via/platforms/avr/timer.o
 .data          0x00000000        0x0 .build/obj_custom_parallel_65_via/platforms/avr/timer.o
 .bss           0x00000000        0x0 .build/obj_custom_parallel_65_via/platforms/avr/timer.o
 .text.timer_clear
                0x00000000       0x18 .build/obj_custom_parallel_65_via/platforms/avr/timer.o
 .text          0x00000000        0x0 .build/obj_custom_parallel_65_via/platforms/avr/bootloaders/dfu.o
 .data          0x00000000        0x0 .build/obj_custom_parallel_65_via/platforms/avr/bootloaders/dfu.o
 .bss           0x00000000        0x0 .build/obj_custom_parallel_65_via/platforms/avr/bootloaders/dfu.o
 .text          0x00000000        0x0 .build/obj_custom_parallel_65_via/lufa.o
 .data          0x00000000        0x0 .build/obj_custom_parallel_65_via/lufa.o
 .bss           0x00000000        0x0 .build/obj_custom_parallel_65_via/lufa.o
 .text.raw_hid_receive
                0x00000000        0x2 .build/obj_custom_parallel_65_via/lufa.o
 .text.send_joystick
                0x00000000        0x2 .build/obj_custom_parallel_65_via/lufa.o
 .text.send_programmable_button
                0x00000000        0x2 .build/obj_custom_parallel_65_via/lufa.o
 .text.send_digitizer
                0x00000000        0x2 .build/obj_custom_parallel_65_via/lufa.o
 .text          0x00000000        0x0 .build/obj_custom_parallel_65_via/usb_descriptor.o
 .data          0x00000000        0x0 .build/obj_custom_parallel_65_via/usb_descriptor.o
 .bss           0x00000000        0x0 .build/obj_custom_parallel_65_via/usb_descriptor.o
 .text          0x00000000        0x0 .build/obj_custom_parallel_65_via/lib/lufa/LUFA/Drivers/USB/Class/Common/HIDParser.o
 .data          0x00000000        0x0 .build/obj_custom_parallel_65_via/lib/lufa/LUFA/Drivers/USB/Class/Common/HIDParser.o
 .bss           0x00000000        0x0 .build/obj_custom_parallel_65_via/lib/lufa/LUFA/Drivers/USB/Class/Common/HIDParser.o
 .text.USB_ProcessHIDReport
                0x00000000      0x64e .build/obj_custom_parallel_65_via/lib/lufa/LUFA/Drivers/USB/Class/Common/HIDParser.o
 .text.USB_GetHIDReportItemInfo
                0x00000000       0xb6 .build/obj_custom_parallel_65_via/lib/lufa/LUFA/Drivers/USB/Class/Common/HIDParser.o
 .text.USB_SetHIDReportItemInfo
                0x00000000       0xa4 .build/obj_custom_parallel_65_via/lib/lufa/LUFA/Drivers/USB/Class/Common/HIDParser.o
 .text.USB_GetHIDReportSize
                0x00000000       0x68 .build/obj_custom_parallel_65_via/lib/lufa/LUFA/Drivers/USB/Class/Common/HIDParser.o
 .debug_info    0x00000000      0x8c8 .build/obj_custom_parallel_65_via/lib/lufa/LUFA/Drivers/USB/Class/Common/HIDParser.o
 .debug_abbrev  0x00000000      0x29d .build/obj_custom_parallel_65_via/lib/lufa/LUFA/Drivers/USB/Class/Common/HIDParser.o
 .debug_loc     0x00000000      0xd0e .build/obj_custom_parallel_65_via/lib/lufa/LUFA/Drivers/USB/Class/Common/HIDParser.o
 .debug_aranges
                0x00000000       0x38 .build/obj_custom_parallel_65_via/lib/lufa/LUFA/Drivers/USB/Class/Common/HIDParser.o
 .debug_ranges  0x00000000       0xe8 .build/obj_custom_parallel_65_via/lib/lufa/LUFA/Drivers/USB/Class/Common/HIDParser.o
 .debug_line    0x00000000      0xdf6 .build/obj_custom_parallel_65_via/lib/lufa/LUFA/Drivers/USB/Class/Common/HIDParser.o
 .debug_str     0x00000000      0x753 .build/obj_custom_parallel_65_via/lib/lufa/LUFA/Drivers/USB/Class/Common/HIDParser.o
 .comment       0x00000000       0x13 .build/obj_custom_parallel_65_via/lib/lufa/LUFA/Drivers/USB/Class/Common/HIDParser.o
 .debug_frame   0x00000000       0xbc .build/obj_custom_parallel_65_via/lib/lufa/LUFA/Drivers/USB/Class/Common/HIDParser.o
 .text          0x00000000        0x0 .build/obj_custom_parallel_65_via/lib/lufa/LUFA/Drivers/USB/Core/AVR8/Device_AVR8.o
 .data          0x00000000        0x0 .build/obj_custom_parallel_65_via/lib/lufa/LUFA/Drivers/USB/Core/AVR8/Device_AVR8.o
 .bss           0x00000000        0x0 .build/obj_custom_parallel_65_via/lib/lufa/LUFA/Drivers/USB/Core/AVR8/Device_AVR8.o
 .text          0x00000000        0x0 .build/obj_custom_parallel_65_via/lib/lufa/LUFA/Drivers/USB/Core/AVR8/EndpointStream_AVR8.o
 .data          0x00000000        0x0 .build/obj_custom_parallel_65_via/lib/lufa/LUFA/Drivers/USB/Core/AVR8/EndpointStream_AVR8.o
 .bss           0x00000000        0x0 .build/obj_custom_parallel_65_via/lib/lufa/LUFA/Drivers/USB/Core/AVR8/EndpointStream_AVR8.o
 .text.Endpoint_Discard_Stream
                0x00000000       0x7c .build/obj_custom_parallel_65_via/lib/lufa/LUFA/Drivers/USB/Core/AVR8/EndpointStream_AVR8.o
 .text.Endpoint_Null_Stream
                0x00000000       0x7c .build/obj_custom_parallel_65_via/lib/lufa/LUFA/Drivers/USB/Core/AVR8/EndpointStream_AVR8.o
 .text.Endpoint_Write_Stream_BE
                0x00000000       0xa8 .build/obj_custom_parallel_65_via/lib/lufa/LUFA/Drivers/USB/Core/AVR8/EndpointStream_AVR8.o
 .text.Endpoint_Read_Stream_BE
                0x00000000       0xa8 .build/obj_custom_parallel_65_via/lib/lufa/LUFA/Drivers/USB/Core/AVR8/EndpointStream_AVR8.o
 .text.Endpoint_Write_PStream_LE
                0x00000000       0xa0 .build/obj_custom_parallel_65_via/lib/lufa/LUFA/Drivers/USB/Core/AVR8/EndpointStream_AVR8.o
 .text.Endpoint_Write_PStream_BE
                0x00000000       0xaa .build/obj_custom_parallel_65_via/lib/lufa/LUFA/Drivers/USB/Core/AVR8/EndpointStream_AVR8.o
 .text.Endpoint_Write_EStream_LE
                0x00000000       0xa2 .build/obj_custom_parallel_65_via/lib/lufa/LUFA/Drivers/USB/Core/AVR8/EndpointStream_AVR8.o
 .text.Endpoint_Write_EStream_BE
                0x00000000       0xac .build/obj_custom_parallel_65_via/lib/lufa/LUFA/Drivers/USB/Core/AVR8/EndpointStream_AVR8.o
 .text.Endpoint_Read_EStream_LE
                0x00000000       0xa2 .build/obj_custom_parallel_65_via/lib/lufa/LUFA/Drivers/USB/Core/AVR8/EndpointStream_AVR8.o
 .text.Endpoint_Read_EStream_BE
                0x00000000       0xac .build/obj_custom_parallel_65_via/lib/lufa/LUFA/Drivers/USB/Core/AVR8/EndpointStream_AVR8.o
 .text.Endpoint_Write_Control_Stream_BE
                0x00000000       0xc4 .build/obj_custom_parallel_65_via/lib/lufa/LUFA/Drivers/USB/Core/AVR8/EndpointStream_AVR8.o
 .text.Endpoint_Read_Control_Stream_LE
                0x00000000       0x70 .build/obj_custom_parallel_65_via/lib/lufa/LUFA/Drivers/USB/Core/AVR8/EndpointStream_AVR8.o
 .text.Endpoint_Read_Control_Stream_BE
                0x00000000       0x7e .build/obj_custom_parallel_65_via/lib/lufa/LUFA/Drivers/USB/Core/AVR8/EndpointStream_AVR8.o
 .text.Endpoint_Write_Control_PStream_BE
                0x00000000       0xc4 .build/obj_custom_parallel_65_via/lib/lufa/LUFA/Drivers/USB/Core/AVR8/EndpointStream_AVR8.o
 .text.Endpoint_Write_Control_EStream_LE
                0x00000000       0xd4 .build/obj_custom_parallel_65_via/lib/lufa/LUFA/Drivers/USB/Core/AVR8/EndpointStream_AVR8.o
 .text.Endpoint_Write_Control_EStream_BE
                0x00000000       0xde .build/obj_custom_parallel_65_via/lib/lufa/LUFA/Drivers/USB/Core/AVR8/EndpointStream_AVR8.o
 .text.Endpoint_Read_Control_EStream_LE
                0x00000000       0x88 .build/obj_custom_parallel_65_via/lib/lufa/LUFA/Drivers/USB/Core/AVR8/EndpointStream_AVR8.o
 .text.Endpoint_Read_Control_EStream_BE
                0x00000000       0x90 .build/obj_custom_parallel_65_via/lib/lufa/LUFA/Drivers/USB/Core/AVR8/EndpointStream_AVR8.o
 .text          0x00000000        0x0 .build/obj_custom_parallel_65_via/lib/lufa/LUFA/Drivers/USB/Core/AVR8/Endpoint_AVR8.o
 .data          0x00000000        0x0 .build/obj_custom_parallel_65_via/lib/lufa/LUFA/Drivers/USB/Core/AVR8/Endpoint_AVR8.o
 .bss           0x00000000        0x0 .build/obj_custom_parallel_65_via/lib/lufa/LUFA/Drivers/USB/Core/AVR8/Endpoint_AVR8.o
 .text.Endpoint_ConfigureEndpointTable
                0x00000000       0x7e .build/obj_custom_parallel_65_via/lib/lufa/LUFA/Drivers/USB/Core/AVR8/Endpoint_AVR8.o
 .text.Endpoint_ClearEndpoints
                0x00000000       0x28 .build/obj_custom_parallel_65_via/lib/lufa/LUFA/Drivers/USB/Core/AVR8/Endpoint_AVR8.o
 .text          0x00000000        0x0 .build/obj_custom_parallel_65_via/lib/lufa/LUFA/Drivers/USB/Core/AVR8/Host_AVR8.o
 .data          0x00000000        0x0 .build/obj_custom_parallel_65_via/lib/lufa/LUFA/Drivers/USB/Core/AVR8/Host_AVR8.o
 .bss           0x00000000        0x0 .build/obj_custom_parallel_65_via/lib/lufa/LUFA/Drivers/USB/Core/AVR8/Host_AVR8.o
 .debug_info    0x00000000       0x5d .build/obj_custom_parallel_65_via/lib/lufa/LUFA/Drivers/USB/Core/AVR8/Host_AVR8.o
 .debug_abbrev  0x00000000       0x26 .build/obj_custom_parallel_65_via/lib/lufa/LUFA/Drivers/USB/Core/AVR8/Host_AVR8.o
 .debug_aranges
                0x00000000       0x18 .build/obj_custom_parallel_65_via/lib/lufa/LUFA/Drivers/USB/Core/AVR8/Host_AVR8.o
 .debug_line    0x00000000       0x4d .build/obj_custom_parallel_65_via/lib/lufa/LUFA/Drivers/USB/Core/AVR8/Host_AVR8.o
 .debug_str     0x00000000      0x20f .build/obj_custom_parallel_65_via/lib/lufa/LUFA/Drivers/USB/Core/AVR8/Host_AVR8.o
 .comment       0x00000000       0x13 .build/obj_custom_parallel_65_via/lib/lufa/LUFA/Drivers/USB/Core/AVR8/Host_AVR8.o
 .text          0x00000000        0x0 .build/obj_custom_parallel_65_via/lib/lufa/LUFA/Drivers/USB/Core/AVR8/PipeStream_AVR8.o
 .data          0x00000000        0x0 .build/obj_custom_parallel_65_via/lib/lufa/LUFA/Drivers/USB/Core/AVR8/PipeStream_AVR8.o
 .bss           0x00000000        0x0 .build/obj_custom_parallel_65_via/lib/lufa/LUFA/Drivers/USB/Core/AVR8/PipeStream_AVR8.o
 .debug_info    0x00000000       0x5d .build/obj_custom_parallel_65_via/lib/lufa/LUFA/Drivers/USB/Core/AVR8/PipeStream_AVR8.o
 .debug_abbrev  0x00000000       0x26 .build/obj_custom_parallel_65_via/lib/lufa/LUFA/Drivers/USB/Core/AVR8/PipeStream_AVR8.o
 .debug_aranges
                0x00000000       0x18 .build/obj_custom_parallel_65_via/lib/lufa/LUFA/Drivers/USB/Core/AVR8/PipeStream_AVR8.o
 .debug_line    0x00000000       0x53 .build/obj_custom_parallel_65_via/lib/lufa/LUFA/Drivers/USB/Core/AVR8/PipeStream_AVR8.o
 .debug_str     0x00000000      0x215 .build/obj_custom_parallel_65_via/lib/lufa/LUFA/Drivers/USB/Core/AVR8/PipeStream_AVR8.o
 .comment       0x00000000       0x13 .build/obj_custom_parallel_65_via/lib/lufa/LUFA/Drivers/USB/Core/AVR8/PipeStream_AVR8.o
 .text          0x00000000        0x0 .build/obj_custom_parallel_65_via/lib/lufa/LUFA/Drivers/USB/Core/AVR8/Pipe_AVR8.o
 .data          0x00000000        0x0 .build/obj_custom_parallel_65_via/lib/lufa/LUFA/Drivers/USB/Core/AVR8/Pipe_AVR8.o
 .bss           0x00000000        0x0 .build/obj_custom_parallel_65_via/lib/lufa/LUFA/Drivers/USB/Core/AVR8/Pipe_AVR8.o
 .debug_info    0x00000000       0x5d .build/obj_custom_parallel_65_via/lib/lufa/LUFA/Drivers/USB/Core/AVR8/Pipe_AVR8.o
 .debug_abbrev  0x00000000       0x26 .build/obj_custom_parallel_65_via/lib/lufa/LUFA/Drivers/USB/Core/AVR8/Pipe_AVR8.o
 .debug_aranges
                0x00000000       0x18 .build/obj_custom_parallel_65_via/lib/lufa/LUFA/Drivers/USB/Core/AVR8/Pipe_AVR8.o
 .debug_line    0x00000000       0x4d .build/obj_custom_parallel_65_via/lib/lufa/LUFA/Drivers/USB/Core/AVR8/Pipe_AVR8.o
 .debug_str     0x00000000      0x20f .build/obj_custom_parallel_65_via/lib/lufa/LUFA/Drivers/USB/Core/AVR8/Pipe_AVR8.o
 .comment       0x00000000       0x13 .build/obj_custom_parallel_65_via/lib/lufa/LUFA/Drivers/USB/Core/AVR8/Pipe_AVR8.o
 .text          0x00000000        0x0 .build/obj_custom_parallel_65_via/lib/lufa/LUFA/Drivers/USB/Core/AVR8/USBController_AVR8.o
 .data          0x00000000        0x0 .build/obj_custom_parallel_65_via/lib/lufa/LUFA/Drivers/USB/Core/AVR8/USBController_AVR8.o
 .bss           0x00000000        0x0 .build/obj_custom_parallel_65_via/lib/lufa/LUFA/Drivers/USB/Core/AVR8/USBController_AVR8.o
 .text          0x00000000        0x0 .build/obj_custom_parallel_65_via/lib/lufa/LUFA/Drivers/USB/Core/AVR8/USBInterrupt_AVR8.o
 .data          0x00000000        0x0 .build/obj_custom_parallel_65_via/lib/lufa/LUFA/Drivers/USB/Core/AVR8/USBInterrupt_AVR8.o
 .bss           0x00000000        0x0 .build/obj_custom_parallel_65_via/lib/lufa/LUFA/Drivers/USB/Core/AVR8/USBInterrupt_AVR8.o
 .text          0x00000000        0x0 .build/obj_custom_parallel_65_via/lib/lufa/LUFA/Drivers/USB/Core/ConfigDescriptors.o
 .data          0x00000000        0x0 .build/obj_custom_parallel_65_via/lib/lufa/LUFA/Drivers/USB/Core/ConfigDescriptors.o
 .bss           0x00000000        0x0 .build/obj_custom_parallel_65_via/lib/lufa/LUFA/Drivers/USB/Core/ConfigDescriptors.o
 .text.USB_GetNextDescriptorOfType
                0x00000000       0x4e .build/obj_custom_parallel_65_via/lib/lufa/LUFA/Drivers/USB/Core/ConfigDescriptors.o
 .text.USB_GetNextDescriptorOfTypeBefore
                0x00000000       0x56 .build/obj_custom_parallel_65_via/lib/lufa/LUFA/Drivers/USB/Core/ConfigDescriptors.o
 .text.USB_GetNextDescriptorOfTypeAfter
                0x00000000       0x32 .build/obj_custom_parallel_65_via/lib/lufa/LUFA/Drivers/USB/Core/ConfigDescriptors.o
 .text.USB_GetNextDescriptorComp
                0x00000000       0x70 .build/obj_custom_parallel_65_via/lib/lufa/LUFA/Drivers/USB/Core/ConfigDescriptors.o
 .debug_info    0x00000000      0x466 .build/obj_custom_parallel_65_via/lib/lufa/LUFA/Drivers/USB/Core/ConfigDescriptors.o
 .debug_abbrev  0x00000000      0x1d2 .build/obj_custom_parallel_65_via/lib/lufa/LUFA/Drivers/USB/Core/ConfigDescriptors.o
 .debug_loc     0x00000000      0x41e .build/obj_custom_parallel_65_via/lib/lufa/LUFA/Drivers/USB/Core/ConfigDescriptors.o
 .debug_aranges
                0x00000000       0x38 .build/obj_custom_parallel_65_via/lib/lufa/LUFA/Drivers/USB/Core/ConfigDescriptors.o
 .debug_ranges  0x00000000       0x28 .build/obj_custom_parallel_65_via/lib/lufa/LUFA/Drivers/USB/Core/ConfigDescriptors.o
 .debug_line    0x00000000      0x3d0 .build/obj_custom_parallel_65_via/lib/lufa/LUFA/Drivers/USB/Core/ConfigDescriptors.o
 .debug_str     0x00000000      0x455 .build/obj_custom_parallel_65_via/lib/lufa/LUFA/Drivers/USB/Core/ConfigDescriptors.o
 .comment       0x00000000       0x13 .build/obj_custom_parallel_65_via/lib/lufa/LUFA/Drivers/USB/Core/ConfigDescriptors.o
 .debug_frame   0x00000000       0xa0 .build/obj_custom_parallel_65_via/lib/lufa/LUFA/Drivers/USB/Core/ConfigDescriptors.o
 .text          0x00000000        0x0 .build/obj_custom_parallel_65_via/lib/lufa/LUFA/Drivers/USB/Core/DeviceStandardReq.o
 .data          0x00000000        0x0 .build/obj_custom_parallel_65_via/lib/lufa/LUFA/Drivers/USB/Core/DeviceStandardReq.o
 .bss           0x00000000        0x0 .build/obj_custom_parallel_65_via/lib/lufa/LUFA/Drivers/USB/Core/DeviceStandardReq.o
 .text          0x00000000        0x0 .build/obj_custom_parallel_65_via/lib/lufa/LUFA/Drivers/USB/Core/Events.o
 .data          0x00000000        0x0 .build/obj_custom_parallel_65_via/lib/lufa/LUFA/Drivers/USB/Core/Events.o
 .bss           0x00000000        0x0 .build/obj_custom_parallel_65_via/lib/lufa/LUFA/Drivers/USB/Core/Events.o
 .text.USB_Event_Stub_2
                0x00000000        0x2 .build/obj_custom_parallel_65_via/lib/lufa/LUFA/Drivers/USB/Core/Events.o
 .text.USB_Event_Stub_3
                0x00000000        0x2 .build/obj_custom_parallel_65_via/lib/lufa/LUFA/Drivers/USB/Core/Events.o
 .text          0x00000000        0x0 .build/obj_custom_parallel_65_via/lib/lufa/LUFA/Drivers/USB/Core/HostStandardReq.o
 .data          0x00000000        0x0 .build/obj_custom_parallel_65_via/lib/lufa/LUFA/Drivers/USB/Core/HostStandardReq.o
 .bss           0x00000000        0x0 .build/obj_custom_parallel_65_via/lib/lufa/LUFA/Drivers/USB/Core/HostStandardReq.o
 .debug_info    0x00000000       0x5d .build/obj_custom_parallel_65_via/lib/lufa/LUFA/Drivers/USB/Core/HostStandardReq.o
 .debug_abbrev  0x00000000       0x26 .build/obj_custom_parallel_65_via/lib/lufa/LUFA/Drivers/USB/Core/HostStandardReq.o
 .debug_aranges
                0x00000000       0x18 .build/obj_custom_parallel_65_via/lib/lufa/LUFA/Drivers/USB/Core/HostStandardReq.o
 .debug_line    0x00000000       0x4e .build/obj_custom_parallel_65_via/lib/lufa/LUFA/Drivers/USB/Core/HostStandardReq.o
 .debug_str     0x00000000      0x210 .build/obj_custom_parallel_65_via/lib/lufa/LUFA/Drivers/USB/Core/HostStandardReq.o
 .comment       0x00000000       0x13 .build/obj_custom_parallel_65_via/lib/lufa/LUFA/Drivers/USB/Core/HostStandardReq.o
 .text          0x00000000        0x0 .build/obj_custom_parallel_65_via/lib/lufa/LUFA/Drivers/USB/Core/USBTask.o
 .data          0x00000000        0x0 .build/obj_custom_parallel_65_via/lib/lufa/LUFA/Drivers/USB/Core/USBTask.o
 .bss           0x00000000        0x0 .build/obj_custom_parallel_65_via/lib/lufa/LUFA/Drivers/USB/Core/USBTask.o
 .text          0x00000000        0x0 .build/obj_custom_parallel_65_via/protocol/lufa/usb_util.o
 .data          0x00000000        0x0 .build/obj_custom_parallel_65_via/protocol/lufa/usb_util.o
 .bss           0x00000000        0x0 .build/obj_custom_parallel_65_via/protocol/lufa/usb_util.o
 .text.usb_disconnect
                0x00000000        0xa .build/obj_custom_parallel_65_via/protocol/lufa/usb_util.o
 .text.usb_connected_state
                0x00000000        0xc .build/obj_custom_parallel_65_via/protocol/lufa/usb_util.o
 .text.usb_vbus_state
                0x00000000       0x1a .build/obj_custom_parallel_65_via/protocol/lufa/usb_util.o
 .debug_info    0x00000000      0x2a9 .build/obj_custom_parallel_65_via/protocol/lufa/usb_util.o
 .debug_abbrev  0x00000000      0x1e7 .build/obj_custom_parallel_65_via/protocol/lufa/usb_util.o
 .debug_loc     0x00000000       0x4b .build/obj_custom_parallel_65_via/protocol/lufa/usb_util.o
 .debug_aranges
                0x00000000       0x30 .build/obj_custom_parallel_65_via/protocol/lufa/usb_util.o
 .debug_ranges  0x00000000       0x20 .build/obj_custom_parallel_65_via/protocol/lufa/usb_util.o
 .debug_line    0x00000000      0x2b2 .build/obj_custom_parallel_65_via/protocol/lufa/usb_util.o
 .debug_str     0x00000000      0x39b .build/obj_custom_parallel_65_via/protocol/lufa/usb_util.o
 .comment       0x00000000       0x13 .build/obj_custom_parallel_65_via/protocol/lufa/usb_util.o
 .debug_frame   0x00000000       0x44 .build/obj_custom_parallel_65_via/protocol/lufa/usb_util.o
 .text          0x00000000        0x0 c:/qmk_msys/mingw64/bin/../lib/gcc/avr/12.2.0/avr5\libgcc.a(_udivmodhi4.o)
 .data          0x00000000        0x0 c:/qmk_msys/mingw64/bin/../lib/gcc/avr/12.2.0/avr5\libgcc.a(_udivmodhi4.o)
 .bss           0x00000000        0x0 c:/qmk_msys/mingw64/bin/../lib/gcc/avr/12.2.0/avr5\libgcc.a(_udivmodhi4.o)
 .text.libgcc.mul
                0x00000000        0x0 c:/qmk_msys/mingw64/bin/../lib/gcc/avr/12.2.0/avr5\libgcc.a(_udivmodhi4.o)
 .text.libgcc   0x00000000        0x0 c:/qmk_msys/mingw64/bin/../lib/gcc/avr/12.2.0/avr5\libgcc.a(_udivmodhi4.o)
 .text.libgcc.prologue
                0x00000000        0x0 c:/qmk_msys/mingw64/bin/../lib/gcc/avr/12.2.0/avr5\libgcc.a(_udivmodhi4.o)
 .text.libgcc.builtins
                0x00000000        0x0 c:/qmk_msys/mingw64/bin/../lib/gcc/avr/12.2.0/avr5\libgcc.a(_udivmodhi4.o)
 .text.libgcc.fmul
                0x00000000        0x0 c:/qmk_msys/mingw64/bin/../lib/gcc/avr/12.2.0/avr5\libgcc.a(_udivmodhi4.o)
 .text.libgcc.fixed
                0x00000000        0x0 c:/qmk_msys/mingw64/bin/../lib/gcc/avr/12.2.0/avr5\libgcc.a(_udivmodhi4.o)
 .text          0x00000000        0x0 c:/qmk_msys/mingw64/bin/../lib/gcc/avr/12.2.0/avr5\libgcc.a(_divmodhi4.o)
 .data          0x00000000        0x0 c:/qmk_msys/mingw64/bin/../lib/gcc/avr/12.2.0/avr5\libgcc.a(_divmodhi4.o)
 .bss           0x00000000        0x0 c:/qmk_msys/mingw64/bin/../lib/gcc/avr/12.2.0/avr5\libgcc.a(_divmodhi4.o)
 .text.libgcc.mul
                0x00000000        0x0 c:/qmk_msys/mingw64/bin/../lib/gcc/avr/12.2.0/avr5\libgcc.a(_divmodhi4.o)
 .text.libgcc   0x00000000        0x0 c:/qmk_msys/mingw64/bin/../lib/gcc/avr/12.2.0/avr5\libgcc.a(_divmodhi4.o)
 .text.libgcc.prologue
                0x00000000        0x0 c:/qmk_msys/mingw64/bin/../lib/gcc/avr/12.2.0/avr5\libgcc.a(_divmodhi4.o)
 .text.libgcc.builtins
                0x00000000        0x0 c:/qmk_msys/mingw64/bin/../lib/gcc/avr/12.2.0/avr5\libgcc.a(_divmodhi4.o)
 .text.libgcc.fmul
                0x00000000        0x0 c:/qmk_msys/mingw64/bin/../lib/gcc/avr/12.2.0/avr5\libgcc.a(_divmodhi4.o)
 .text.libgcc.fixed
                0x00000000        0x0 c:/qmk_msys/mingw64/bin/../lib/gcc/avr/12.2.0/avr5\libgcc.a(_divmodhi4.o)
 .text          0x00000000        0x0 c:/qmk_msys/mingw64/bin/../lib/gcc/avr/12.2.0/avr5\libgcc.a(_udivmodsi4.o)
 .data          0x00000000        0x0 c:/qmk_msys/mingw64/bin/../lib/gcc/avr/12.2.0/avr5\libgcc.a(_udivmodsi4.o)
 .bss           0x00000000        0x0 c:/qmk_msys/mingw64/bin/../lib/gcc/avr/12.2.0/avr5\libgcc.a(_udivmodsi4.o)
 .text.libgcc.mul
                0x00000000        0x0 c:/qmk_msys/mingw64/bin/../lib/gcc/avr/12.2.0/avr5\libgcc.a(_udivmodsi4.o)
 .text.libgcc.div
                0x00000000       0x44 c:/qmk_msys/mingw64/bin/../lib/gcc/avr/12.2.0/avr5\libgcc.a(_udivmodsi4.o)
 .text.libgcc   0x00000000        0x0 c:/qmk_msys/mingw64/bin/../lib/gcc/avr/12.2.0/avr5\libgcc.a(_udivmodsi4.o)
 .text.libgcc.prologue
                0x00000000        0x0 c:/qmk_msys/mingw64/bin/../lib/gcc/avr/12.2.0/avr5\libgcc.a(_udivmodsi4.o)
 .text.libgcc.builtins
                0x00000000        0x0 c:/qmk_msys/mingw64/bin/../lib/gcc/avr/12.2.0/avr5\libgcc.a(_udivmodsi4.o)
 .text.libgcc.fmul
                0x00000000        0x0 c:/qmk_msys/mingw64/bin/../lib/gcc/avr/12.2.0/avr5\libgcc.a(_udivmodsi4.o)
 .text.libgcc.fixed
                0x00000000        0x0 c:/qmk_msys/mingw64/bin/../lib/gcc/avr/12.2.0/avr5\libgcc.a(_udivmodsi4.o)
 .text          0x00000000        0x0 c:/qmk_msys/mingw64/bin/../lib/gcc/avr/12.2.0/avr5\libgcc.a(_divmodsi4.o)
 .data          0x00000000        0x0 c:/qmk_msys/mingw64/bin/../lib/gcc/avr/12.2.0/avr5\libgcc.a(_divmodsi4.o)
 .bss           0x00000000        0x0 c:/qmk_msys/mingw64/bin/../lib/gcc/avr/12.2.0/avr5\libgcc.a(_divmodsi4.o)
 .text.libgcc.mul
                0x00000000        0x0 c:/qmk_msys/mingw64/bin/../lib/gcc/avr/12.2.0/avr5\libgcc.a(_divmodsi4.o)
 .text.libgcc.div
                0x00000000       0x2e c:/qmk_msys/mingw64/bin/../lib/gcc/avr/12.2.0/avr5\libgcc.a(_divmodsi4.o)
 .text.libgcc   0x00000000        0x0 c:/qmk_msys/mingw64/bin/../lib/gcc/avr/12.2.0/avr5\libgcc.a(_divmodsi4.o)
 .text.libgcc.prologue
                0x00000000        0x0 c:/qmk_msys/mingw64/bin/../lib/gcc/avr/12.2.0/avr5\libgcc.a(_divmodsi4.o)
 .text.libgcc.builtins
                0x00000000        0x0 c:/qmk_msys/mingw64/bin/../lib/gcc/avr/12.2.0/avr5\libgcc.a(_divmodsi4.o)
 .text.libgcc.fmul
                0x00000000        0x0 c:/qmk_msys/mingw64/bin/../lib/gcc/avr/12.2.0/avr5\libgcc.a(_divmodsi4.o)
 .text.libgcc.fixed
                0x00000000        0x0 c:/qmk_msys/mingw64/bin/../lib/gcc/avr/12.2.0/avr5\libgcc.a(_divmodsi4.o)
 .text          0x00000000        0x0 c:/qmk_msys/mingw64/bin/../lib/gcc/avr/12.2.0/avr5\libgcc.a(_negsi2.o)
 .data          0x00000000        0x0 c:/qmk_msys/mingw64/bin/../lib/gcc/avr/12.2.0/avr5\libgcc.a(_negsi2.o)
 .bss           0x00000000        0x0 c:/qmk_msys/mingw64/bin/../lib/gcc/avr/12.2.0/avr5\libgcc.a(_negsi2.o)
 .text.libgcc.mul
                0x00000000        0x0 c:/qmk_msys/mingw64/bin/../lib/gcc/avr/12.2.0/avr5\libgcc.a(_negsi2.o)
 .text.libgcc.div
                0x00000000       0x10 c:/qmk_msys/mingw64/bin/../lib/gcc/avr/12.2.0/avr5\libgcc.a(_negsi2.o)
 .text.libgcc   0x00000000        0x0 c:/qmk_msys/mingw64/bin/../lib/gcc/avr/12.2.0/avr5\libgcc.a(_negsi2.o)
 .text.libgcc.prologue
                0x00000000        0x0 c:/qmk_msys/mingw64/bin/../lib/gcc/avr/12.2.0/avr5\libgcc.a(_negsi2.o)
 .text.libgcc.builtins
                0x00000000        0x0 c:/qmk_msys/mingw64/bin/../lib/gcc/avr/12.2.0/avr5\libgcc.a(_negsi2.o)
 .text.libgcc.fmul
                0x00000000        0x0 c:/qmk_msys/mingw64/bin/../lib/gcc/avr/12.2.0/avr5\libgcc.a(_negsi2.o)
 .text.libgcc.fixed
                0x00000000        0x0 c:/qmk_msys/mingw64/bin/../lib/gcc/avr/12.2.0/avr5\libgcc.a(_negsi2.o)
 .text          0x00000000        0x0 c:/qmk_msys/mingw64/bin/../lib/gcc/avr/12.2.0/avr5\libgcc.a(_exit.o)
 .data          0x00000000        0x0 c:/qmk_msys/mingw64/bin/../lib/gcc/avr/12.2.0/avr5\libgcc.a(_exit.o)
 .bss           0x00000000        0x0 c:/qmk_msys/mingw64/bin/../lib/gcc/avr/12.2.0/avr5\libgcc.a(_exit.o)
 .text.libgcc.mul
                0x00000000        0x0 c:/qmk_msys/mingw64/bin/../lib/gcc/avr/12.2.0/avr5\libgcc.a(_exit.o)
 .text.libgcc.div
                0x00000000        0x0 c:/qmk_msys/mingw64/bin/../lib/gcc/avr/12.2.0/avr5\libgcc.a(_exit.o)
 .text.libgcc   0x00000000        0x0 c:/qmk_msys/mingw64/bin/../lib/gcc/avr/12.2.0/avr5\libgcc.a(_exit.o)
 .text.libgcc.prologue
                0x00000000        0x0 c:/qmk_msys/mingw64/bin/../lib/gcc/avr/12.2.0/avr5\libgcc.a(_exit.o)
 .text.libgcc.builtins
                0x00000000        0x0 c:/qmk_msys/mingw64/bin/../lib/gcc/avr/12.2.0/avr5\libgcc.a(_exit.o)
 .text.libgcc.fmul
                0x00000000        0x0 c:/qmk_msys/mingw64/bin/../lib/gcc/avr/12.2.0/avr5\libgcc.a(_exit.o)
 .text.libgcc.fixed
                0x00000000        0x0 c:/qmk_msys/mingw64/bin/../lib/gcc/avr/12.2.0/avr5\libgcc.a(_exit.o)
 .text          0x00000000        0x0 c:/qmk_msys/mingw64/bin/../lib/gcc/avr/12.2.0/avr5\libgcc.a(_tablejump2.o)
 .data          0x00000000        0x0 c:/qmk_msys/mingw64/bin/../lib/gcc/avr/12.2.0/avr5\libgcc.a(_tablejump2.o)
 .bss           0x00000000        0x0 c:/qmk_msys/mingw64/bin/../lib/gcc/avr/12.2.0/avr5\libgcc.a(_tablejump2.o)
 .text.libgcc.mul
                0x00000000        0x0 c:/qmk_msys/mingw64/bin/../lib/gcc/avr/12.2.0/avr5\libgcc.a(_tablejump2.o)
 .text.libgcc.div
                0x00000000        0x0 c:/qmk_msys/mingw64/bin/../lib/gcc/avr/12.2.0/avr5\libgcc.a(_tablejump2.o)
 .text.libgcc.prologue
                0x00000000        0x0 c:/qmk_msys/mingw64/bin/../lib/gcc/avr/12.2.0/avr5\libgcc.a(_tablejump2.o)
 .text.libgcc.builtins
                0x00000000        0x0 c:/qmk_msys/mingw64/bin/../lib/gcc/avr/12.2.0/avr5\libgcc.a(_tablejump2.o)
 .text.libgcc.fmul
                0x00000000        0x0 c:/qmk_msys/mingw64/bin/../lib/gcc/avr/12.2.0/avr5\libgcc.a(_tablejump2.o)
 .text.libgcc.fixed
                0x00000000        0x0 c:/qmk_msys/mingw64/bin/../lib/gcc/avr/12.2.0/avr5\libgcc.a(_tablejump2.o)
 .text          0x00000000        0x0 c:/qmk_msys/mingw64/bin/../lib/gcc/avr/12.2.0/avr5\libgcc.a(_copy_data.o)
 .data          0x00000000        0x0 c:/qmk_msys/mingw64/bin/../lib/gcc/avr/12.2.0/avr5\libgcc.a(_copy_data.o)
 .bss           0x00000000        0x0 c:/qmk_msys/mingw64/bin/../lib/gcc/avr/12.2.0/avr5\libgcc.a(_copy_data.o)
 .text.libgcc.mul
                0x00000000        0x0 c:/qmk_msys/mingw64/bin/../lib/gcc/avr/12.2.0/avr5\libgcc.a(_copy_data.o)
 .text.libgcc.div
                0x00000000        0x0 c:/qmk_msys/mingw64/bin/../lib/gcc/avr/12.2.0/avr5\libgcc.a(_copy_data.o)
 .text.libgcc   0x00000000        0x0 c:/qmk_msys/mingw64/bin/../lib/gcc/avr/12.2.0/avr5\libgcc.a(_copy_data.o)
 .text.libgcc.prologue
                0x00000000        0x0 c:/qmk_msys/mingw64/bin/../lib/gcc/avr/12.2.0/avr5\libgcc.a(_copy_data.o)
 .text.libgcc.builtins
                0x00000000        0x0 c:/qmk_msys/mingw64/bin/../lib/gcc/avr/12.2.0/avr5\libgcc.a(_copy_data.o)
 .text.libgcc.fmul
                0x00000000        0x0 c:/qmk_msys/mingw64/bin/../lib/gcc/avr/12.2.0/avr5\libgcc.a(_copy_data.o)
 .text.libgcc.fixed
                0x00000000        0x0 c:/qmk_msys/mingw64/bin/../lib/gcc/avr/12.2.0/avr5\libgcc.a(_copy_data.o)
 .text          0x00000000        0x0 c:/qmk_msys/mingw64/bin/../lib/gcc/avr/12.2.0/avr5\libgcc.a(_clear_bss.o)
 .data          0x00000000        0x0 c:/qmk_msys/mingw64/bin/../lib/gcc/avr/12.2.0/avr5\libgcc.a(_clear_bss.o)
 .bss           0x00000000        0x0 c:/qmk_msys/mingw64/bin/../lib/gcc/avr/12.2.0/avr5\libgcc.a(_clear_bss.o)
 .text.libgcc.mul
                0x00000000        0x0 c:/qmk_msys/mingw64/bin/../lib/gcc/avr/12.2.0/avr5\libgcc.a(_clear_bss.o)
 .text.libgcc.div
                0x00000000        0x0 c:/qmk_msys/mingw64/bin/../lib/gcc/avr/12.2.0/avr5\libgcc.a(_clear_bss.o)
 .text.libgcc   0x00000000        0x0 c:/qmk_msys/mingw64/bin/../lib/gcc/avr/12.2.0/avr5\libgcc.a(_clear_bss.o)
 .text.libgcc.prologue
                0x00000000        0x0 c:/qmk_msys/mingw64/bin/../lib/gcc/avr/12.2.0/avr5\libgcc.a(_clear_bss.o)
 .text.libgcc.builtins
                0x00000000        0x0 c:/qmk_msys/mingw64/bin/../lib/gcc/avr/12.2.0/avr5\libgcc.a(_clear_bss.o)
 .text.libgcc.fmul
                0x00000000        0x0 c:/qmk_msys/mingw64/bin/../lib/gcc/avr/12.2.0/avr5\libgcc.a(_clear_bss.o)
 .text.libgcc.fixed
                0x00000000        0x0 c:/qmk_msys/mingw64/bin/../lib/gcc/avr/12.2.0/avr5\libgcc.a(_clear_bss.o)
 .text          0x00000000        0x0 c:/qmk_msys/mingw64/bin/../lib/gcc/avr/12.2.0/avr5\libgcc.a(_popcounthi2.o)
 .data          0x00000000        0x0 c:/qmk_msys/mingw64/bin/../lib/gcc/avr/12.2.0/avr5\libgcc.a(_popcounthi2.o)
 .bss           0x00000000        0x0 c:/qmk_msys/mingw64/bin/../lib/gcc/avr/12.2.0/avr5\libgcc.a(_popcounthi2.o)
 .text.libgcc.mul
                0x00000000        0x0 c:/qmk_msys/mingw64/bin/../lib/gcc/avr/12.2.0/avr5\libgcc.a(_popcounthi2.o)
 .text.libgcc.div
                0x00000000        0x0 c:/qmk_msys/mingw64/bin/../lib/gcc/avr/12.2.0/avr5\libgcc.a(_popcounthi2.o)
 .text.libgcc   0x00000000        0x0 c:/qmk_msys/mingw64/bin/../lib/gcc/avr/12.2.0/avr5\libgcc.a(_popcounthi2.o)
 .text.libgcc.prologue
                0x00000000        0x0 c:/qmk_msys/mingw64/bin/../lib/gcc/avr/12.2.0/avr5\libgcc.a(_popcounthi2.o)
 .text.libgcc.builtins
                0x00000000       0x14 c:/qmk_msys/mingw64/bin/../lib/gcc/avr/12.2.0/avr5\libgcc.a(_popcounthi2.o)
 .text.libgcc.fmul
                0x00000000        0x0 c:/qmk_msys/mingw64/bin/../lib/gcc/avr/12.2.0/avr5\libgcc.a(_popcounthi2.o)
 .text.libgcc.fixed
                0x00000000        0x0 c:/qmk_msys/mingw64/bin/../lib/gcc/avr/12.2.0/avr5\libgcc.a(_popcounthi2.o)
 .text          0x00000000        0x0 c:/qmk_msys/mingw64/bin/../lib/gcc/avr/12.2.0/avr5\libgcc.a(_popcountsi2.o)
 .data          0x00000000        0x0 c:/qmk_msys/mingw64/bin/../lib/gcc/avr/12.2.0/avr5\libgcc.a(_popcountsi2.o)
 .bss           0x00000000        0x0 c:/qmk_msys/mingw64/bin/../lib/gcc/avr/12.2.0/avr5\libgcc.a(_popcountsi2.o)
 .text.libgcc.mul
                0x00000000        0x0 c:/qmk_msys/mingw64/bin/../lib/gcc/avr/12.2.0/avr5\libgcc.a(_popcountsi2.o)
 .text.libgcc.div
                0x00000000        0x0 c:/qmk_msys/mingw64/bin/../lib/gcc/avr/12.2.0/avr5\libgcc.a(_popcountsi2.o)
 .text.libgcc   0x00000000        0x0 c:/qmk_msys/mingw64/bin/../lib/gcc/avr/12.2.0/avr5\libgcc.a(_popcountsi2.o)
 .text.libgcc.prologue
                0x00000000        0x0 c:/qmk_msys/mingw64/bin/../lib/gcc/avr/12.2.0/avr5\libgcc.a(_popcountsi2.o)
 .text.libgcc.builtins
                0x00000000       0x10 c:/qmk_msys/mingw64/bin/../lib/gcc/avr/12.2.0/avr5\libgcc.a(_popcountsi2.o)
 .text.libgcc.fmul
                0x00000000        0x0 c:/qmk_msys/mingw64/bin/../lib/gcc/avr/12.2.0/avr5\libgcc.a(_popcountsi2.o)
 .text.libgcc.fixed
                0x00000000        0x0 c:/qmk_msys/mingw64/bin/../lib/gcc/avr/12.2.0/avr5\libgcc.a(_popcountsi2.o)
 .text          0x00000000        0x0 c:/qmk_msys/mingw64/bin/../lib/gcc/avr/12.2.0/avr5\libgcc.a(_popcountqi2.o)
 .data          0x00000000        0x0 c:/qmk_msys/mingw64/bin/../lib/gcc/avr/12.2.0/avr5\libgcc.a(_popcountqi2.o)
 .bss           0x00000000        0x0 c:/qmk_msys/mingw64/bin/../lib/gcc/avr/12.2.0/avr5\libgcc.a(_popcountqi2.o)
 .text.libgcc.mul
                0x00000000        0x0 c:/qmk_msys/mingw64/bin/../lib/gcc/avr/12.2.0/avr5\libgcc.a(_popcountqi2.o)
 .text.libgcc.div
                0x00000000        0x0 c:/qmk_msys/mingw64/bin/../lib/gcc/avr/12.2.0/avr5\libgcc.a(_popcountqi2.o)
 .text.libgcc   0x00000000        0x0 c:/qmk_msys/mingw64/bin/../lib/gcc/avr/12.2.0/avr5\libgcc.a(_popcountqi2.o)
 .text.libgcc.prologue
                0x00000000        0x0 c:/qmk_msys/mingw64/bin/../lib/gcc/avr/12.2.0/avr5\libgcc.a(_popcountqi2.o)
 .text.libgcc.builtins
                0x00000000       0x20 c:/qmk_msys/mingw64/bin/../lib/gcc/avr/12.2.0/avr5\libgcc.a(_popcountqi2.o)
 .text.libgcc.fmul
                0x00000000        0x0 c:/qmk_msys/mingw64/bin/../lib/gcc/avr/12.2.0/avr5\libgcc.a(_popcountqi2.o)
 .text.libgcc.fixed
                0x00000000        0x0 c:/qmk_msys/mingw64/bin/../lib/gcc/avr/12.2.0/avr5\libgcc.a(_popcountqi2.o)
 .text          0x00000000        0x0 c:/qmk_msys/mingw64/bin/../lib/gcc/avr/12.2.0/avr5\libgcc.a(_bswapsi2.o)
 .data          0x00000000        0x0 c:/qmk_msys/mingw64/bin/../lib/gcc/avr/12.2.0/avr5\libgcc.a(_bswapsi2.o)
 .bss           0x00000000        0x0 c:/qmk_msys/mingw64/bin/../lib/gcc/avr/12.2.0/avr5\libgcc.a(_bswapsi2.o)
 .text.libgcc.mul
                0x00000000        0x0 c:/qmk_msys/mingw64/bin/../lib/gcc/avr/12.2.0/avr5\libgcc.a(_bswapsi2.o)
 .text.libgcc.div
                0x00000000        0x0 c:/qmk_msys/mingw64/bin/../lib/gcc/avr/12.2.0/avr5\libgcc.a(_bswapsi2.o)
 .text.libgcc   0x00000000        0x0 c:/qmk_msys/mingw64/bin/../lib/gcc/avr/12.2.0/avr5\libgcc.a(_bswapsi2.o)
 .text.libgcc.prologue
                0x00000000        0x0 c:/qmk_msys/mingw64/bin/../lib/gcc/avr/12.2.0/avr5\libgcc.a(_bswapsi2.o)
 .text.libgcc.fmul
                0x00000000        0x0 c:/qmk_msys/mingw64/bin/../lib/gcc/avr/12.2.0/avr5\libgcc.a(_bswapsi2.o)
 .text.libgcc.fixed
                0x00000000        0x0 c:/qmk_msys/mingw64/bin/../lib/gcc/avr/12.2.0/avr5\libgcc.a(_bswapsi2.o)
 .text          0x00000000        0x0 c:/qmk_msys/mingw64/bin/../lib/gcc/avr/12.2.0/avr5\libgcc.a(_prologue.o)
 .data          0x00000000        0x0 c:/qmk_msys/mingw64/bin/../lib/gcc/avr/12.2.0/avr5\libgcc.a(_prologue.o)
 .bss           0x00000000        0x0 c:/qmk_msys/mingw64/bin/../lib/gcc/avr/12.2.0/avr5\libgcc.a(_prologue.o)
 .text.libgcc.mul
                0x00000000        0x0 c:/qmk_msys/mingw64/bin/../lib/gcc/avr/12.2.0/avr5\libgcc.a(_prologue.o)
 .text.libgcc.div
                0x00000000        0x0 c:/qmk_msys/mingw64/bin/../lib/gcc/avr/12.2.0/avr5\libgcc.a(_prologue.o)
 .text.libgcc   0x00000000        0x0 c:/qmk_msys/mingw64/bin/../lib/gcc/avr/12.2.0/avr5\libgcc.a(_prologue.o)
 .text.libgcc.builtins
                0x00000000        0x0 c:/qmk_msys/mingw64/bin/../lib/gcc/avr/12.2.0/avr5\libgcc.a(_prologue.o)
 .text.libgcc.fmul
                0x00000000        0x0 c:/qmk_msys/mingw64/bin/../lib/gcc/avr/12.2.0/avr5\libgcc.a(_prologue.o)
 .text.libgcc.fixed
                0x00000000        0x0 c:/qmk_msys/mingw64/bin/../lib/gcc/avr/12.2.0/avr5\libgcc.a(_prologue.o)
 .text          0x00000000        0x0 c:/qmk_msys/mingw64/bin/../lib/gcc/avr/12.2.0/avr5\libgcc.a(_epilogue.o)
 .data          0x00000000        0x0 c:/qmk_msys/mingw64/bin/../lib/gcc/avr/12.2.0/avr5\libgcc.a(_epilogue.o)
 .bss           0x00000000        0x0 c:/qmk_msys/mingw64/bin/../lib/gcc/avr/12.2.0/avr5\libgcc.a(_epilogue.o)
 .text.libgcc.mul
                0x00000000        0x0 c:/qmk_msys/mingw64/bin/../lib/gcc/avr/12.2.0/avr5\libgcc.a(_epilogue.o)
 .text.libgcc.div
                0x00000000        0x0 c:/qmk_msys/mingw64/bin/../lib/gcc/avr/12.2.0/avr5\libgcc.a(_epilogue.o)
 .text.libgcc   0x00000000        0x0 c:/qmk_msys/mingw64/bin/../lib/gcc/avr/12.2.0/avr5\libgcc.a(_epilogue.o)
 .text.libgcc.builtins
                0x00000000        0x0 c:/qmk_msys/mingw64/bin/../lib/gcc/avr/12.2.0/avr5\libgcc.a(_epilogue.o)
 .text.libgcc.fmul
                0x00000000        0x0 c:/qmk_msys/mingw64/bin/../lib/gcc/avr/12.2.0/avr5\libgcc.a(_epilogue.o)
 .text.libgcc.fixed
                0x00000000        0x0 c:/qmk_msys/mingw64/bin/../lib/gcc/avr/12.2.0/avr5\libgcc.a(_epilogue.o)
 .text          0x00000000        0x0 c:/qmk_msys/mingw64/bin/../lib/gcc/avr/12.2.0/../../../../avr/lib/avr5\libc.a(memcmp.o)
 .data          0x00000000        0x0 c:/qmk_msys/mingw64/bin/../lib/gcc/avr/12.2.0/../../../../avr/lib/avr5\libc.a(memcmp.o)
 .bss           0x00000000        0x0 c:/qmk_msys/mingw64/bin/../lib/gcc/avr/12.2.0/../../../../avr/lib/avr5\libc.a(memcmp.o)
 .text          0x00000000        0x0 c:/qmk_msys/mingw64/bin/../lib/gcc/avr/12.2.0/../../../../avr/lib/avr5\libc.a(memcpy.o)
 .data          0x00000000        0x0 c:/qmk_msys/mingw64/bin/../lib/gcc/avr/12.2.0/../../../../avr/lib/avr5\libc.a(memcpy.o)
 .bss           0x00000000        0x0 c:/qmk_msys/mingw64/bin/../lib/gcc/avr/12.2.0/../../../../avr/lib/avr5\libc.a(memcpy.o)
 .text          0x00000000        0x0 c:/qmk_msys/mingw64/bin/../lib/gcc/avr/12.2.0/../../../../avr/lib/avr5\libc.a(memmove.o)
 .data          0x00000000        0x0 c:/qmk_msys/mingw64/bin/../lib/gcc/avr/12.2.0/../../../../avr/lib/avr5\libc.a(memmove.o)
 .bss           0x00000000        0x0 c:/qmk_msys/mingw64/bin/../lib/gcc/avr/12.2.0/../../../../avr/lib/avr5\libc.a(memmove.o)
 .text.avr-libc
                0x00000000       0x24 c:/qmk_msys/mingw64/bin/../lib/gcc/avr/12.2.0/../../../../avr/lib/avr5\libc.a(memmove.o)
 .text          0x00000000        0x0 c:/qmk_msys/mingw64/bin/../lib/gcc/avr/12.2.0/../../../../avr/lib/avr5\libc.a(memset.o)
 .data          0x00000000        0x0 c:/qmk_msys/mingw64/bin/../lib/gcc/avr/12.2.0/../../../../avr/lib/avr5\libc.a(memset.o)
 .bss           0x00000000        0x0 c:/qmk_msys/mingw64/bin/../lib/gcc/avr/12.2.0/../../../../avr/lib/avr5\libc.a(memset.o)
 .text          0x00000000        0x0 c:/qmk_msys/mingw64/bin/../lib/gcc/avr/12.2.0/../../../../avr/lib/avr5\libatmega32u4.a(eerd_block.o)
 .data          0x00000000        0x0 c:/qmk_msys/mingw64/bin/../lib/gcc/avr/12.2.0/../../../../avr/lib/avr5\libatmega32u4.a(eerd_block.o)
 .bss           0x00000000        0x0 c:/qmk_msys/mingw64/bin/../lib/gcc/avr/12.2.0/../../../../avr/lib/avr5\libatmega32u4.a(eerd_block.o)
 .text          0x00000000        0x0 c:/qmk_msys/mingw64/bin/../lib/gcc/avr/12.2.0/../../../../avr/lib/avr5\libatmega32u4.a(eerd_byte.o)
 .data          0x00000000        0x0 c:/qmk_msys/mingw64/bin/../lib/gcc/avr/12.2.0/../../../../avr/lib/avr5\libatmega32u4.a(eerd_byte.o)
 .bss           0x00000000        0x0 c:/qmk_msys/mingw64/bin/../lib/gcc/avr/12.2.0/../../../../avr/lib/avr5\libatmega32u4.a(eerd_byte.o)
 .text          0x00000000        0x0 c:/qmk_msys/mingw64/bin/../lib/gcc/avr/12.2.0/../../../../avr/lib/avr5\libatmega32u4.a(eerd_dword.o)
 .data          0x00000000        0x0 c:/qmk_msys/mingw64/bin/../lib/gcc/avr/12.2.0/../../../../avr/lib/avr5\libatmega32u4.a(eerd_dword.o)
 .bss           0x00000000        0x0 c:/qmk_msys/mingw64/bin/../lib/gcc/avr/12.2.0/../../../../avr/lib/avr5\libatmega32u4.a(eerd_dword.o)
 .text.avr-libc
                0x00000000        0xc c:/qmk_msys/mingw64/bin/../lib/gcc/avr/12.2.0/../../../../avr/lib/avr5\libatmega32u4.a(eerd_dword.o)
 .text          0x00000000        0x0 c:/qmk_msys/mingw64/bin/../lib/gcc/avr/12.2.0/../../../../avr/lib/avr5\libatmega32u4.a(eerd_word.o)
 .data          0x00000000        0x0 c:/qmk_msys/mingw64/bin/../lib/gcc/avr/12.2.0/../../../../avr/lib/avr5\libatmega32u4.a(eerd_word.o)
 .bss           0x00000000        0x0 c:/qmk_msys/mingw64/bin/../lib/gcc/avr/12.2.0/../../../../avr/lib/avr5\libatmega32u4.a(eerd_word.o)
 .text          0x00000000        0x0 c:/qmk_msys/mingw64/bin/../lib/gcc/avr/12.2.0/../../../../avr/lib/avr5\libatmega32u4.a(eeupd_block.o)
 .data          0x00000000        0x0 c:/qmk_msys/mingw64/bin/../lib/gcc/avr/12.2.0/../../../../avr/lib/avr5\libatmega32u4.a(eeupd_block.o)
 .bss           0x00000000        0x0 c:/qmk_msys/mingw64/bin/../lib/gcc/avr/12.2.0/../../../../avr/lib/avr5\libatmega32u4.a(eeupd_block.o)
 .text          0x00000000        0x0 c:/qmk_msys/mingw64/bin/../lib/gcc/avr/12.2.0/../../../../avr/lib/avr5\libatmega32u4.a(eeupd_byte.o)
 .data          0x00000000        0x0 c:/qmk_msys/mingw64/bin/../lib/gcc/avr/12.2.0/../../../../avr/lib/avr5\libatmega32u4.a(eeupd_byte.o)
 .bss           0x00000000        0x0 c:/qmk_msys/mingw64/bin/../lib/gcc/avr/12.2.0/../../../../avr/lib/avr5\libatmega32u4.a(eeupd_byte.o)
 .text          0x00000000        0x0 c:/qmk_msys/mingw64/bin/../lib/gcc/avr/12.2.0/../../../../avr/lib/avr5\libatmega32u4.a(eeupd_dword.o)
 .data          0x00000000        0x0 c:/qmk_msys/mingw64/bin/../lib/gcc/avr/12.2.0/../../../../avr/lib/avr5\libatmega32u4.a(eeupd_dword.o)
 .bss           0x00000000        0x0 c:/qmk_msys/mingw64/bin/../lib/gcc/avr/12.2.0/../../../../avr/lib/avr5\libatmega32u4.a(eeupd_dword.o)
 .text          0x00000000        0x0 c:/qmk_msys/mingw64/bin/../lib/gcc/avr/12.2.0/../../../../avr/lib/avr5\libatmega32u4.a(eeupd_word.o)
 .data          0x00000000        0x0 c:/qmk_msys/mingw64/bin/../lib/gcc/avr/12.2.0/../../../../avr/lib/avr5\libatmega32u4.a(eeupd_word.o)
 .bss           0x00000000        0x0 c:/qmk_msys/mingw64/bin/../lib/gcc/avr/12.2.0/../../../../avr/lib/avr5\libatmega32u4.a(eeupd_word.o)

Memory Configuration

Name             Origin             Length             Attributes
text             0x00000000         0x00020000         xr
data             0x00800060         0x0000ffa0         rw!x
eeprom           0x00810000         0x00010000         rw!x
fuse             0x00820000         0x00000003         rw!x
lock             0x00830000         0x00000400         rw!x
signature        0x00840000         0x00000400         rw!x
user_signatures  0x00850000         0x00000400         rw!x
*default*        0x00000000         0xffffffff

Linker script and memory map

Address of section .data set to 0x800100
LOAD c:/qmk_msys/mingw64/bin/../lib/gcc/avr/12.2.0/../../../../avr/lib/avr5/crtatmega32u4.o
LOAD .build/obj_custom_parallel_65_via/.build/obj_custom_parallel_65_via/src/default_keyboard.o
LOAD .build/obj_custom_parallel_65_via/quantum/keymap_introspection.o
LOAD .build/obj_custom_parallel_65_via/quantum/quantum.o
LOAD .build/obj_custom_parallel_65_via/quantum/bitwise.o
LOAD .build/obj_custom_parallel_65_via/quantum/led.o
LOAD .build/obj_custom_parallel_65_via/quantum/action.o
LOAD .build/obj_custom_parallel_65_via/quantum/action_layer.o
LOAD .build/obj_custom_parallel_65_via/quantum/action_tapping.o
LOAD .build/obj_custom_parallel_65_via/quantum/action_util.o
LOAD .build/obj_custom_parallel_65_via/quantum/eeconfig.o
LOAD .build/obj_custom_parallel_65_via/quantum/keyboard.o
LOAD .build/obj_custom_parallel_65_via/quantum/keymap_common.o
LOAD .build/obj_custom_parallel_65_via/quantum/keycode_config.o
LOAD .build/obj_custom_parallel_65_via/quantum/sync_timer.o
LOAD .build/obj_custom_parallel_65_via/quantum/logging/debug.o
LOAD .build/obj_custom_parallel_65_via/quantum/logging/sendchar.o
LOAD .build/obj_custom_parallel_65_via/quantum/matrix_common.o
LOAD .build/obj_custom_parallel_65_via/quantum/matrix.o
LOAD .build/obj_custom_parallel_65_via/quantum/debounce/sym_defer_g.o
LOAD .build/obj_custom_parallel_65_via/quantum/main.o
LOAD .build/obj_custom_parallel_65_via/platforms/avr/xprintf.o
LOAD .build/obj_custom_parallel_65_via/platforms/avr/printf.o
LOAD .build/obj_custom_parallel_65_via/quantum/color.o
LOAD .build/obj_custom_parallel_65_via/quantum/rgb_matrix/rgb_matrix.o
LOAD .build/obj_custom_parallel_65_via/quantum/rgb_matrix/rgb_matrix_drivers.o
LOAD .build/obj_custom_parallel_65_via/quantum/process_keycode/process_rgb.o
LOAD .build/obj_custom_parallel_65_via/quantum/led_tables.o
LOAD .build/obj_custom_parallel_65_via/lib/lib8tion/lib8tion.o
LOAD .build/obj_custom_parallel_65_via/ws2812_bitbang.o
LOAD .build/obj_custom_parallel_65_via/quantum/bootmagic/bootmagic.o
LOAD .build/obj_custom_parallel_65_via/quantum/dynamic_keymap.o
LOAD .build/obj_custom_parallel_65_via/quantum/process_keycode/process_grave_esc.o
LOAD .build/obj_custom_parallel_65_via/quantum/process_keycode/process_magic.o
LOAD .build/obj_custom_parallel_65_via/quantum/mousekey.o
LOAD .build/obj_custom_parallel_65_via/quantum/send_string/send_string.o
LOAD .build/obj_custom_parallel_65_via/quantum/process_keycode/process_space_cadet.o
LOAD .build/obj_custom_parallel_65_via/quantum/process_keycode/process_tri_layer.o
LOAD .build/obj_custom_parallel_65_via/quantum/tri_layer.o
LOAD .build/obj_custom_parallel_65_via/quantum/via.o
LOAD .build/obj_custom_parallel_65_via/protocol/host.o
LOAD .build/obj_custom_parallel_65_via/protocol/report.o
LOAD .build/obj_custom_parallel_65_via/protocol/usb_device_state.o
LOAD .build/obj_custom_parallel_65_via/protocol/usb_util.o
LOAD .build/obj_custom_parallel_65_via/platforms/suspend.o
LOAD .build/obj_custom_parallel_65_via/platforms/synchronization_util.o
LOAD .build/obj_custom_parallel_65_via/platforms/timer.o
LOAD .build/obj_custom_parallel_65_via/platforms/avr/hardware_id.o
LOAD .build/obj_custom_parallel_65_via/platforms/avr/platform.o
LOAD .build/obj_custom_parallel_65_via/platforms/avr/suspend.o
LOAD .build/obj_custom_parallel_65_via/platforms/avr/timer.o
LOAD .build/obj_custom_parallel_65_via/platforms/avr/bootloaders/dfu.o
LOAD .build/obj_custom_parallel_65_via/lufa.o
LOAD .build/obj_custom_parallel_65_via/usb_descriptor.o
LOAD .build/obj_custom_parallel_65_via/lib/lufa/LUFA/Drivers/USB/Class/Common/HIDParser.o
LOAD .build/obj_custom_parallel_65_via/lib/lufa/LUFA/Drivers/USB/Core/AVR8/Device_AVR8.o
LOAD .build/obj_custom_parallel_65_via/lib/lufa/LUFA/Drivers/USB/Core/AVR8/EndpointStream_AVR8.o
LOAD .build/obj_custom_parallel_65_via/lib/lufa/LUFA/Drivers/USB/Core/AVR8/Endpoint_AVR8.o
LOAD .build/obj_custom_parallel_65_via/lib/lufa/LUFA/Drivers/USB/Core/AVR8/Host_AVR8.o
LOAD .build/obj_custom_parallel_65_via/lib/lufa/LUFA/Drivers/USB/Core/AVR8/PipeStream_AVR8.o
LOAD .build/obj_custom_parallel_65_via/lib/lufa/LUFA/Drivers/USB/Core/AVR8/Pipe_AVR8.o
LOAD .build/obj_custom_parallel_65_via/lib/lufa/LUFA/Drivers/USB/Core/AVR8/USBController_AVR8.o
LOAD .build/obj_custom_parallel_65_via/lib/lufa/LUFA/Drivers/USB/Core/AVR8/USBInterrupt_AVR8.o
LOAD .build/obj_custom_parallel_65_via/lib/lufa/LUFA/Drivers/USB/Core/ConfigDescriptors.o
LOAD .build/obj_custom_parallel_65_via/lib/lufa/LUFA/Drivers/USB/Core/DeviceStandardReq.o
LOAD .build/obj_custom_parallel_65_via/lib/lufa/LUFA/Drivers/USB/Core/Events.o
LOAD .build/obj_custom_parallel_65_via/lib/lufa/LUFA/Drivers/USB/Core/HostStandardReq.o
LOAD .build/obj_custom_parallel_65_via/lib/lufa/LUFA/Drivers/USB/Core/USBTask.o
LOAD .build/obj_custom_parallel_65_via/protocol/lufa/usb_util.o
LOAD c:/qmk_msys/mingw64/bin/../lib/gcc/avr/12.2.0/../../../../avr/lib/avr5\libm.a
START GROUP
LOAD c:/qmk_msys/mingw64/bin/../lib/gcc/avr/12.2.0/avr5\libgcc.a
LOAD c:/qmk_msys/mingw64/bin/../lib/gcc/avr/12.2.0/../../../../avr/lib/avr5\libm.a
LOAD c:/qmk_msys/mingw64/bin/../lib/gcc/avr/12.2.0/../../../../avr/lib/avr5\libc.a
LOAD c:/qmk_msys/mingw64/bin/../lib/gcc/avr/12.2.0/../../../../avr/lib/avr5\libatmega32u4.a
END GROUP
                0x00020000                        __TEXT_REGION_LENGTH__ = DEFINED (__TEXT_REGION_LENGTH__)?__TEXT_REGION_LENGTH__:0x20000
                0x00800060                        __DATA_REGION_ORIGIN__ = DEFINED (__DATA_REGION_ORIGIN__)?__DATA_REGION_ORIGIN__:0x800060
                0x0000ffa0                        __DATA_REGION_LENGTH__ = DEFINED (__DATA_REGION_LENGTH__)?__DATA_REGION_LENGTH__:0xffa0
                0x00010000                        __EEPROM_REGION_LENGTH__ = DEFINED (__EEPROM_REGION_LENGTH__)?__EEPROM_REGION_LENGTH__:0x10000
                [0x00000003]                      __FUSE_REGION_LENGTH__ = DEFINED (__FUSE_REGION_LENGTH__)?__FUSE_REGION_LENGTH__:0x400
                0x00000400                        __LOCK_REGION_LENGTH__ = DEFINED (__LOCK_REGION_LENGTH__)?__LOCK_REGION_LENGTH__:0x400
                0x00000400                        __SIGNATURE_REGION_LENGTH__ = DEFINED (__SIGNATURE_REGION_LENGTH__)?__SIGNATURE_REGION_LENGTH__:0x400
                0x00000400                        __USER_SIGNATURE_REGION_LENGTH__ = DEFINED (__USER_SIGNATURE_REGION_LENGTH__)?__USER_SIGNATURE_REGION_LENGTH__:0x400

.hash
 *(.hash)

.dynsym
 *(.dynsym)

.dynstr
 *(.dynstr)

.gnu.version
 *(.gnu.version)

.gnu.version_d
 *(.gnu.version_d)

.gnu.version_r
 *(.gnu.version_r)

.rel.init
 *(.rel.init)

.rela.init
 *(.rela.init)

.rel.text
 *(.rel.text)
 *(.rel.text.*)
 *(.rel.gnu.linkonce.t*)

.rela.text
 *(.rela.text)
 *(.rela.text.*)
 *(.rela.gnu.linkonce.t*)

.rel.fini
 *(.rel.fini)

.rela.fini
 *(.rela.fini)

.rel.rodata
 *(.rel.rodata)
 *(.rel.rodata.*)
 *(.rel.gnu.linkonce.r*)

.rela.rodata
 *(.rela.rodata)
 *(.rela.rodata.*)
 *(.rela.gnu.linkonce.r*)

.rel.data
 *(.rel.data)
 *(.rel.data.*)
 *(.rel.gnu.linkonce.d*)

.rela.data
 *(.rela.data)
 *(.rela.data.*)
 *(.rela.gnu.linkonce.d*)

.rel.ctors
 *(.rel.ctors)

.rela.ctors
 *(.rela.ctors)

.rel.dtors
 *(.rel.dtors)

.rela.dtors
 *(.rela.dtors)

.rel.got
 *(.rel.got)

.rela.got
 *(.rela.got)

.rel.bss
 *(.rel.bss)

.rela.bss
 *(.rela.bss)

.rel.plt
 *(.rel.plt)

.rela.plt
 *(.rela.plt)

.text           0x00000000     0x6044
 *(.vectors)
 .vectors       0x00000000       0xac c:/qmk_msys/mingw64/bin/../lib/gcc/avr/12.2.0/../../../../avr/lib/avr5/crtatmega32u4.o
                0x00000000                __vector_default
                0x00000000                __vectors
 *(.vectors)
 *(.progmem.gcc*)
                0x000000ac                        . = ALIGN (0x2)
                0x000000ac                        __trampolines_start = .
 *(.trampolines)
 .trampolines   0x000000ac        0x0 linker stubs
 *(.trampolines*)
                0x000000ac                        __trampolines_end = .
 *libprintf_flt.a:*(.progmem.data)
 *libc.a:*(.progmem.data)
 *(.progmem.*)
 .progmem.data.keymaps
                0x000000ac      0x280 .build/obj_custom_parallel_65_via/quantum/keymap_introspection.o
                0x000000ac                keymaps
 .progmem.data.CIE1931_CURVE
                0x0000032c      0x100 .build/obj_custom_parallel_65_via/quantum/led_tables.o
                0x0000032c                CIE1931_CURVE
 .progmem.data.ascii_to_keycode_lut
                0x0000042c       0x80 .build/obj_custom_parallel_65_via/quantum/send_string/send_string.o
                0x0000042c                ascii_to_keycode_lut
 .progmem.data.ascii_to_dead_lut
                0x000004ac       0x10 .build/obj_custom_parallel_65_via/quantum/send_string/send_string.o
                0x000004ac                ascii_to_dead_lut
 .progmem.data.ascii_to_altgr_lut
                0x000004bc       0x10 .build/obj_custom_parallel_65_via/quantum/send_string/send_string.o
                0x000004bc                ascii_to_altgr_lut
 .progmem.data.ascii_to_shift_lut
                0x000004cc       0x10 .build/obj_custom_parallel_65_via/quantum/send_string/send_string.o
                0x000004cc                ascii_to_shift_lut
 .progmem.data.ProductString
                0x000004dc       0x28 .build/obj_custom_parallel_65_via/usb_descriptor.o
                0x000004dc                ProductString
 .progmem.data.ManufacturerString
                0x00000504       0x16 .build/obj_custom_parallel_65_via/usb_descriptor.o
                0x00000504                ManufacturerString
 .progmem.data.LanguageString
                0x0000051a        0x4 .build/obj_custom_parallel_65_via/usb_descriptor.o
                0x0000051a                LanguageString
 .progmem.data.ConfigurationDescriptor
                0x0000051e       0x5b .build/obj_custom_parallel_65_via/usb_descriptor.o
                0x0000051e                ConfigurationDescriptor
 .progmem.data.DeviceDescriptor
                0x00000579       0x12 .build/obj_custom_parallel_65_via/usb_descriptor.o
                0x00000579                DeviceDescriptor
 .progmem.data.RawReport
                0x0000058b       0x22 .build/obj_custom_parallel_65_via/usb_descriptor.o
                0x0000058b                RawReport
 .progmem.data.SharedReport
                0x000005ad       0x7b .build/obj_custom_parallel_65_via/usb_descriptor.o
                0x000005ad                SharedReport
 .progmem.data.KeyboardReport
                0x00000628       0x44 .build/obj_custom_parallel_65_via/usb_descriptor.o
                0x00000628                KeyboardReport
                0x0000066c                        . = ALIGN (0x2)
 *(.lowtext)
 *(.lowtext*)
                0x0000066c                        __ctors_start = .
 *(.ctors)
                0x0000066c                        __ctors_end = .
                0x0000066c                        __dtors_start = .
 *(.dtors)
                0x0000066c                        __dtors_end = .
 SORT_BY_NAME(*)(.ctors)
 SORT_BY_NAME(*)(.dtors)
 *(.init0)
 .init0         0x0000066c        0x0 c:/qmk_msys/mingw64/bin/../lib/gcc/avr/12.2.0/../../../../avr/lib/avr5/crtatmega32u4.o
                0x0000066c                __init
 *(.init0)
 *(.init1)
 *(.init1)
 *(.init2)
 .init2         0x0000066c        0xc c:/qmk_msys/mingw64/bin/../lib/gcc/avr/12.2.0/../../../../avr/lib/avr5/crtatmega32u4.o
 *(.init2)
 *(.init3)
 .init3         0x00000678       0x36 .build/obj_custom_parallel_65_via/platforms/avr/bootloaders/dfu.o
                0x00000678                bootloader_jump_after_watchdog_reset
 *(.init3)
 *(.init4)
 .init4         0x000006ae       0x16 c:/qmk_msys/mingw64/bin/../lib/gcc/avr/12.2.0/avr5\libgcc.a(_copy_data.o)
                0x000006ae                __do_copy_data
 .init4         0x000006c4       0x10 c:/qmk_msys/mingw64/bin/../lib/gcc/avr/12.2.0/avr5\libgcc.a(_clear_bss.o)
                0x000006c4                __do_clear_bss
 *(.init4)
 *(.init5)
 *(.init5)
 *(.init6)
 *(.init6)
 *(.init7)
 *(.init7)
 *(.init8)
 *(.init8)
 *(.init9)
 .init9         0x000006d4        0x8 c:/qmk_msys/mingw64/bin/../lib/gcc/avr/12.2.0/../../../../avr/lib/avr5/crtatmega32u4.o
 *(.init9)
 *(.text)
 .text          0x000006dc        0x4 c:/qmk_msys/mingw64/bin/../lib/gcc/avr/12.2.0/../../../../avr/lib/avr5/crtatmega32u4.o
                0x000006dc                __vector_38
                0x000006dc                __vector_22
                0x000006dc                __vector_28
                0x000006dc                __vector_1
                0x000006dc                __vector_32
                0x000006dc                __vector_34
                0x000006dc                __vector_24
                0x000006dc                __bad_interrupt
                0x000006dc                __vector_6
                0x000006dc                __vector_31
                0x000006dc                __vector_35
                0x000006dc                __vector_39
                0x000006dc                __vector_3
                0x000006dc                __vector_23
                0x000006dc                __vector_30
                0x000006dc                __vector_25
                0x000006dc                __vector_13
                0x000006dc                __vector_17
                0x000006dc                __vector_19
                0x000006dc                __vector_7
                0x000006dc                __vector_41
                0x000006dc                __vector_27
                0x000006dc                __vector_5
                0x000006dc                __vector_33
                0x000006dc                __vector_37
                0x000006dc                __vector_4
                0x000006dc                __vector_9
                0x000006dc                __vector_2
                0x000006dc                __vector_15
                0x000006dc                __vector_36
                0x000006dc                __vector_29
                0x000006dc                __vector_40
                0x000006dc                __vector_8
                0x000006dc                __vector_26
                0x000006dc                __vector_14
                0x000006dc                __vector_16
                0x000006dc                __vector_18
                0x000006dc                __vector_20
                0x000006dc                __vector_42
                0x000006e0                        . = ALIGN (0x2)
 *(.text.*)
 .text.keycode_at_keymap_location_raw
                0x000006e0       0x3c .build/obj_custom_parallel_65_via/quantum/keymap_introspection.o
                0x000006e0                keycode_at_keymap_location_raw
 .text.pre_process_record_user
                0x0000071c        0x4 .build/obj_custom_parallel_65_via/quantum/quantum.o
                0x0000071c                pre_process_record_user
 .text.pre_process_record_kb
                0x00000720        0x6 .build/obj_custom_parallel_65_via/quantum/quantum.o
                0x00000720                pre_process_record_kb
 .text.process_action_kb
                0x00000726        0x4 .build/obj_custom_parallel_65_via/quantum/quantum.o
                0x00000726                process_action_kb
 .text.process_record_user
                0x0000072a        0x6 .build/obj_custom_parallel_65_via/quantum/quantum.o
                0x0000072a                process_record_user
 .text.process_record_kb
                0x00000730        0x6 .build/obj_custom_parallel_65_via/quantum/quantum.o
                0x00000730                process_record_kb
 .text.post_process_record_user
                0x00000736        0x2 .build/obj_custom_parallel_65_via/quantum/quantum.o
                0x00000736                post_process_record_user
 .text.post_process_record_kb
                0x00000738        0x6 .build/obj_custom_parallel_65_via/quantum/quantum.o
                0x00000738                post_process_record_kb
 .text.get_event_keycode
                0x0000073e       0x5c .build/obj_custom_parallel_65_via/quantum/quantum.o
                0x0000073e                get_event_keycode
 .text.get_record_keycode
                0x0000079a       0x16 .build/obj_custom_parallel_65_via/quantum/quantum.o
                0x0000079a                get_record_keycode
 .text.pre_process_record_quantum
                0x000007b0       0x1c .build/obj_custom_parallel_65_via/quantum/quantum.o
                0x000007b0                pre_process_record_quantum
 .text.post_process_record_quantum
                0x000007cc       0x1c .build/obj_custom_parallel_65_via/quantum/quantum.o
                0x000007cc                post_process_record_quantum
 .text.shutdown_user
                0x000007e8        0x4 .build/obj_custom_parallel_65_via/quantum/quantum.o
                0x000007e8                shutdown_user
 .text.shutdown_kb
                0x000007ec        0x6 .build/obj_custom_parallel_65_via/quantum/quantum.o
                0x000007ec                shutdown_kb
 .text.shutdown_quantum
                0x000007f2       0x24 .build/obj_custom_parallel_65_via/quantum/quantum.o
                0x000007f2                shutdown_quantum
 .text.reset_keyboard
                0x00000816        0xc .build/obj_custom_parallel_65_via/quantum/quantum.o
                0x00000816                reset_keyboard
 .text.soft_reset_keyboard
                0x00000822        0xc .build/obj_custom_parallel_65_via/quantum/quantum.o
                0x00000822                soft_reset_keyboard
 .text.process_record_quantum
                0x0000082e       0xd2 .build/obj_custom_parallel_65_via/quantum/quantum.o
                0x0000082e                process_record_quantum
 .text.suspend_power_down_quantum
                0x00000900       0x14 .build/obj_custom_parallel_65_via/quantum/quantum.o
                0x00000900                suspend_power_down_quantum
 .text.suspend_wakeup_init_quantum
                0x00000914       0x10 .build/obj_custom_parallel_65_via/quantum/quantum.o
                0x00000914                suspend_wakeup_init_quantum
 .text.led_update_user
                0x00000924        0x4 .build/obj_custom_parallel_65_via/quantum/led.o
                0x00000924                led_update_user
 .text.led_update_ports
                0x00000928        0x2 .build/obj_custom_parallel_65_via/quantum/led.o
                0x00000928                led_update_ports
 .text.led_update_kb
                0x0000092a       0x1e .build/obj_custom_parallel_65_via/quantum/led.o
                0x0000092a                led_update_kb
 .text.led_init_ports
                0x00000948        0x2 .build/obj_custom_parallel_65_via/quantum/led.o
                0x00000948                led_init_ports
 .text.led_set  0x0000094a        0x6 .build/obj_custom_parallel_65_via/quantum/led.o
                0x0000094a                led_set
 .text.led_suspend
                0x00000950        0x8 .build/obj_custom_parallel_65_via/quantum/led.o
                0x00000950                led_suspend
 .text.led_wakeup
                0x00000958        0xa .build/obj_custom_parallel_65_via/quantum/led.o
                0x00000958                led_wakeup
 .text.led_task
                0x00000962       0x32 .build/obj_custom_parallel_65_via/quantum/led.o
                0x00000962                led_task
 .text.action_exec
                0x00000994       0x60 .build/obj_custom_parallel_65_via/quantum/action.o
                0x00000994                action_exec
 .text.process_record_tap_hint
                0x000009f4       0x12 .build/obj_custom_parallel_65_via/quantum/action.o
                0x000009f4                process_record_tap_hint
 .text.register_mouse
                0x00000a06       0x14 .build/obj_custom_parallel_65_via/quantum/action.o
                0x00000a06                register_mouse
 .text.register_code
                0x00000a1a      0x11a .build/obj_custom_parallel_65_via/quantum/action.o
                0x00000a1a                register_code
 .text.unregister_code
                0x00000b34       0xb4 .build/obj_custom_parallel_65_via/quantum/action.o
                0x00000b34                unregister_code
 .text.tap_code_delay
                0x00000be8       0x30 .build/obj_custom_parallel_65_via/quantum/action.o
                0x00000be8                tap_code_delay
 .text.tap_code
                0x00000c18       0x12 .build/obj_custom_parallel_65_via/quantum/action.o
                0x00000c18                tap_code
 .text.register_mods
                0x00000c2a        0xe .build/obj_custom_parallel_65_via/quantum/action.o
                0x00000c2a                register_mods
 .text.unregister_mods
                0x00000c38        0xe .build/obj_custom_parallel_65_via/quantum/action.o
                0x00000c38                unregister_mods
 .text.process_action
                0x00000c46      0x3e8 .build/obj_custom_parallel_65_via/quantum/action.o
                0x00000c46                process_action
 .text.process_record_handler
                0x0000102e       0x30 .build/obj_custom_parallel_65_via/quantum/action.o
                0x0000102e                process_record_handler
 .text.process_record
                0x0000105e       0x46 .build/obj_custom_parallel_65_via/quantum/action.o
                0x0000105e                process_record
 .text.clear_keyboard_but_mods_and_keys
                0x000010a4       0x22 .build/obj_custom_parallel_65_via/quantum/action.o
                0x000010a4                clear_keyboard_but_mods_and_keys
 .text.clear_keyboard_but_mods
                0x000010c6        0xa .build/obj_custom_parallel_65_via/quantum/action.o
                0x000010c6                clear_keyboard_but_mods
 .text.clear_keyboard
                0x000010d0        0xa .build/obj_custom_parallel_65_via/quantum/action.o
                0x000010d0                clear_keyboard
 .text.is_tap_action
                0x000010da       0x3a .build/obj_custom_parallel_65_via/quantum/action.o
                0x000010da                is_tap_action
 .text.is_tap_record
                0x00001114       0x1a .build/obj_custom_parallel_65_via/quantum/action.o
                0x00001114                is_tap_record
 .text.debug_event
                0x0000112e       0x14 .build/obj_custom_parallel_65_via/quantum/action.o
                0x0000112e                debug_event
 .text.debug_record
                0x00001142       0x14 .build/obj_custom_parallel_65_via/quantum/action.o
                0x00001142                debug_record
 .text.default_layer_state_set_user
                0x00001156        0x2 .build/obj_custom_parallel_65_via/quantum/action_layer.o
                0x00001156                default_layer_state_set_user
 .text.default_layer_state_set_kb
                0x00001158        0x6 .build/obj_custom_parallel_65_via/quantum/action_layer.o
                0x00001158                default_layer_state_set_kb
 .text.default_layer_state_set
                0x0000115e        0xa .build/obj_custom_parallel_65_via/quantum/action_layer.o
 .text.default_layer_debug
                0x00001168        0x2 .build/obj_custom_parallel_65_via/quantum/action_layer.o
                0x00001168                default_layer_debug
 .text.default_layer_set
                0x0000116a        0x6 .build/obj_custom_parallel_65_via/quantum/action_layer.o
                0x0000116a                default_layer_set
 .text.default_layer_or
                0x00001170        0xc .build/obj_custom_parallel_65_via/quantum/action_layer.o
                0x00001170                default_layer_or
 .text.default_layer_and
                0x0000117c        0xc .build/obj_custom_parallel_65_via/quantum/action_layer.o
                0x0000117c                default_layer_and
 .text.default_layer_xor
                0x00001188        0xc .build/obj_custom_parallel_65_via/quantum/action_layer.o
                0x00001188                default_layer_xor
 .text.layer_state_set_user
                0x00001194        0x6 .build/obj_custom_parallel_65_via/quantum/action_layer.o
                0x00001194                layer_state_set_user
 .text.layer_state_set_kb
                0x0000119a        0x6 .build/obj_custom_parallel_65_via/quantum/action_layer.o
                0x0000119a                layer_state_set_kb
 .text.layer_state_set
                0x000011a0        0xa .build/obj_custom_parallel_65_via/quantum/action_layer.o
                0x000011a0                layer_state_set
 .text.layer_clear
                0x000011aa        0x8 .build/obj_custom_parallel_65_via/quantum/action_layer.o
                0x000011aa                layer_clear
 .text.layer_move
                0x000011b2       0x12 .build/obj_custom_parallel_65_via/quantum/action_layer.o
                0x000011b2                layer_move
 .text.layer_on
                0x000011c4       0x18 .build/obj_custom_parallel_65_via/quantum/action_layer.o
                0x000011c4                layer_on
 .text.layer_off
                0x000011dc       0x20 .build/obj_custom_parallel_65_via/quantum/action_layer.o
                0x000011dc                layer_off
 .text.layer_invert
                0x000011fc       0x18 .build/obj_custom_parallel_65_via/quantum/action_layer.o
                0x000011fc                layer_invert
 .text.layer_or
                0x00001214        0xc .build/obj_custom_parallel_65_via/quantum/action_layer.o
                0x00001214                layer_or
 .text.layer_and
                0x00001220        0xc .build/obj_custom_parallel_65_via/quantum/action_layer.o
                0x00001220                layer_and
 .text.layer_xor
                0x0000122c        0xc .build/obj_custom_parallel_65_via/quantum/action_layer.o
                0x0000122c                layer_xor
 .text.layer_debug
                0x00001238        0x2 .build/obj_custom_parallel_65_via/quantum/action_layer.o
                0x00001238                layer_debug
 .text.update_source_layers_cache_impl
                0x0000123a       0x5c .build/obj_custom_parallel_65_via/quantum/action_layer.o
                0x0000123a                update_source_layers_cache_impl
 .text.read_source_layers_cache_impl
                0x00001296       0x52 .build/obj_custom_parallel_65_via/quantum/action_layer.o
                0x00001296                read_source_layers_cache_impl
 .text.update_source_layers_cache
                0x000012e8       0x22 .build/obj_custom_parallel_65_via/quantum/action_layer.o
                0x000012e8                update_source_layers_cache
 .text.read_source_layers_cache
                0x0000130a       0x24 .build/obj_custom_parallel_65_via/quantum/action_layer.o
                0x0000130a                read_source_layers_cache
 .text.layer_switch_get_layer
                0x0000132e       0x52 .build/obj_custom_parallel_65_via/quantum/action_layer.o
                0x0000132e                layer_switch_get_layer
 .text.layer_switch_get_action
                0x00001380       0x1a .build/obj_custom_parallel_65_via/quantum/action_layer.o
                0x00001380                layer_switch_get_action
 .text.store_or_get_action
                0x0000139a       0x52 .build/obj_custom_parallel_65_via/quantum/action_layer.o
                0x0000139a                store_or_get_action
 .text.update_tri_layer_state
                0x000013ec       0x3a .build/obj_custom_parallel_65_via/quantum/action_layer.o
                0x000013ec                update_tri_layer_state
 .text.update_tri_layer
                0x00001426       0x14 .build/obj_custom_parallel_65_via/quantum/action_layer.o
                0x00001426                update_tri_layer
 .text.debug_waiting_buffer
                0x0000143a       0x44 .build/obj_custom_parallel_65_via/quantum/action_tapping.o
 .text.debug_tapping_key
                0x0000147e       0x22 .build/obj_custom_parallel_65_via/quantum/action_tapping.o
 .text.waiting_buffer_scan_tap
                0x000014a0       0xa2 .build/obj_custom_parallel_65_via/quantum/action_tapping.o
 .text.waiting_buffer_typed.isra.0
                0x00001542       0x3e .build/obj_custom_parallel_65_via/quantum/action_tapping.o
 .text.process_tapping
                0x00001580      0x2f4 .build/obj_custom_parallel_65_via/quantum/action_tapping.o
 .text.action_tapping_process
                0x00001874      0x10c .build/obj_custom_parallel_65_via/quantum/action_tapping.o
                0x00001874                action_tapping_process
 .text.get_oneshot_layer
                0x00001980        0xc .build/obj_custom_parallel_65_via/quantum/action_util.o
                0x00001980                get_oneshot_layer
 .text.get_oneshot_layer_state
                0x0000198c        0x8 .build/obj_custom_parallel_65_via/quantum/action_util.o
                0x0000198c                get_oneshot_layer_state
 .text.is_oneshot_layer_active
                0x00001994       0x10 .build/obj_custom_parallel_65_via/quantum/action_util.o
                0x00001994                is_oneshot_layer_active
 .text.get_mods
                0x000019a4        0x6 .build/obj_custom_parallel_65_via/quantum/action_util.o
                0x000019a4                get_mods
 .text.add_mods
                0x000019aa        0xc .build/obj_custom_parallel_65_via/quantum/action_util.o
                0x000019aa                add_mods
 .text.del_mods
                0x000019b6       0x10 .build/obj_custom_parallel_65_via/quantum/action_util.o
                0x000019b6                del_mods
 .text.clear_mods
                0x000019c6        0x6 .build/obj_custom_parallel_65_via/quantum/action_util.o
                0x000019c6                clear_mods
 .text.add_weak_mods
                0x000019cc        0xc .build/obj_custom_parallel_65_via/quantum/action_util.o
                0x000019cc                add_weak_mods
 .text.del_weak_mods
                0x000019d8       0x10 .build/obj_custom_parallel_65_via/quantum/action_util.o
                0x000019d8                del_weak_mods
 .text.clear_weak_mods
                0x000019e8        0x6 .build/obj_custom_parallel_65_via/quantum/action_util.o
                0x000019e8                clear_weak_mods
 .text.oneshot_locked_mods_changed_user
                0x000019ee        0x2 .build/obj_custom_parallel_65_via/quantum/action_util.o
                0x000019ee                oneshot_locked_mods_changed_user
 .text.oneshot_locked_mods_changed_kb
                0x000019f0        0x6 .build/obj_custom_parallel_65_via/quantum/action_util.o
                0x000019f0                oneshot_locked_mods_changed_kb
 .text.del_oneshot_locked_mods
                0x000019f6       0x1a .build/obj_custom_parallel_65_via/quantum/action_util.o
                0x000019f6                del_oneshot_locked_mods
 .text.oneshot_mods_changed_user
                0x00001a10        0x2 .build/obj_custom_parallel_65_via/quantum/action_util.o
                0x00001a10                oneshot_mods_changed_user
 .text.oneshot_mods_changed_kb
                0x00001a12        0x6 .build/obj_custom_parallel_65_via/quantum/action_util.o
                0x00001a12                oneshot_mods_changed_kb
 .text.add_oneshot_mods
                0x00001a18       0x18 .build/obj_custom_parallel_65_via/quantum/action_util.o
                0x00001a18                add_oneshot_mods
 .text.del_oneshot_mods
                0x00001a30       0x1a .build/obj_custom_parallel_65_via/quantum/action_util.o
                0x00001a30                del_oneshot_mods
 .text.clear_oneshot_mods
                0x00001a4a       0x14 .build/obj_custom_parallel_65_via/quantum/action_util.o
                0x00001a4a                clear_oneshot_mods
 .text.send_6kro_report
                0x00001a5e       0x6c .build/obj_custom_parallel_65_via/quantum/action_util.o
                0x00001a5e                send_6kro_report
 .text.send_keyboard_report
                0x00001aca        0x6 .build/obj_custom_parallel_65_via/quantum/action_util.o
                0x00001aca                send_keyboard_report
 .text.oneshot_layer_changed_user
                0x00001ad0        0x2 .build/obj_custom_parallel_65_via/quantum/action_util.o
                0x00001ad0                oneshot_layer_changed_user
 .text.oneshot_layer_changed_kb
                0x00001ad2        0x6 .build/obj_custom_parallel_65_via/quantum/action_util.o
                0x00001ad2                oneshot_layer_changed_kb
 .text.set_oneshot_layer
                0x00001ad8       0x30 .build/obj_custom_parallel_65_via/quantum/action_util.o
                0x00001ad8                set_oneshot_layer
 .text.reset_oneshot_layer
                0x00001b08        0xc .build/obj_custom_parallel_65_via/quantum/action_util.o
                0x00001b08                reset_oneshot_layer
 .text.clear_oneshot_layer_state
                0x00001b14       0x30 .build/obj_custom_parallel_65_via/quantum/action_util.o
                0x00001b14                clear_oneshot_layer_state
 .text.oneshot_set
                0x00001b44       0x2a .build/obj_custom_parallel_65_via/quantum/action_util.o
                0x00001b44                oneshot_set
 .text.oneshot_toggle
                0x00001b6e       0x14 .build/obj_custom_parallel_65_via/quantum/action_util.o
                0x00001b6e                oneshot_toggle
 .text.oneshot_enable
                0x00001b82        0x8 .build/obj_custom_parallel_65_via/quantum/action_util.o
                0x00001b82                oneshot_enable
 .text.oneshot_disable
                0x00001b8a        0x8 .build/obj_custom_parallel_65_via/quantum/action_util.o
                0x00001b8a                oneshot_disable
 .text.eeconfig_disable
                0x00001b92        0xe .build/obj_custom_parallel_65_via/quantum/eeconfig.o
                0x00001b92                eeconfig_disable
 .text.eeconfig_is_enabled
                0x00001ba0       0x18 .build/obj_custom_parallel_65_via/quantum/eeconfig.o
                0x00001ba0                eeconfig_is_enabled
 .text.eeconfig_read_debug
                0x00001bb8        0xa .build/obj_custom_parallel_65_via/quantum/eeconfig.o
                0x00001bb8                eeconfig_read_debug
 .text.eeconfig_read_default_layer
                0x00001bc2        0xa .build/obj_custom_parallel_65_via/quantum/eeconfig.o
                0x00001bc2                eeconfig_read_default_layer
 .text.eeconfig_read_keymap
                0x00001bcc        0xa .build/obj_custom_parallel_65_via/quantum/eeconfig.o
                0x00001bcc                eeconfig_read_keymap
 .text.eeconfig_update_keymap
                0x00001bd6        0xc .build/obj_custom_parallel_65_via/quantum/eeconfig.o
                0x00001bd6                eeconfig_update_keymap
 .text.eeconfig_update_kb
                0x00001be2        0xe .build/obj_custom_parallel_65_via/quantum/eeconfig.o
                0x00001be2                eeconfig_update_kb
 .text.eeconfig_update_user
                0x00001bf0        0xe .build/obj_custom_parallel_65_via/quantum/eeconfig.o
                0x00001bf0                eeconfig_update_user
 .text.eeconfig_init_user
                0x00001bfe        0xc .build/obj_custom_parallel_65_via/quantum/eeconfig.o
                0x00001bfe                eeconfig_init_user
 .text.eeconfig_init_kb
                0x00001c0a       0x10 .build/obj_custom_parallel_65_via/quantum/eeconfig.o
                0x00001c0a                eeconfig_init_kb
 .text.eeconfig_init_quantum
                0x00001c1a       0xc2 .build/obj_custom_parallel_65_via/quantum/eeconfig.o
                0x00001c1a                eeconfig_init_quantum
 .text.eeconfig_init
                0x00001cdc        0x6 .build/obj_custom_parallel_65_via/quantum/eeconfig.o
                0x00001cdc                eeconfig_init
 .text.eeconfig_update_handedness
                0x00001ce2        0xc .build/obj_custom_parallel_65_via/quantum/eeconfig.o
                0x00001ce2                eeconfig_update_handedness
 .text.generate_tick_event
                0x00001cee       0x46 .build/obj_custom_parallel_65_via/quantum/keyboard.o
 .text.last_matrix_activity_trigger
                0x00001d34       0x26 .build/obj_custom_parallel_65_via/quantum/keyboard.o
                0x00001d34                last_matrix_activity_trigger
 .text.keyboard_pre_init_user
                0x00001d5a        0x2 .build/obj_custom_parallel_65_via/quantum/keyboard.o
                0x00001d5a                keyboard_pre_init_user
 .text.matrix_setup
                0x00001d5c        0x2 .build/obj_custom_parallel_65_via/quantum/keyboard.o
                0x00001d5c                matrix_setup
 .text.keyboard_pre_init_kb
                0x00001d5e        0x6 .build/obj_custom_parallel_65_via/quantum/keyboard.o
                0x00001d5e                keyboard_pre_init_kb
 .text.keyboard_post_init_user
                0x00001d64        0x2 .build/obj_custom_parallel_65_via/quantum/keyboard.o
                0x00001d64                keyboard_post_init_user
 .text.keyboard_post_init_kb
                0x00001d66        0x6 .build/obj_custom_parallel_65_via/quantum/keyboard.o
                0x00001d66                keyboard_post_init_kb
 .text.keyboard_setup
                0x00001d6c       0x12 .build/obj_custom_parallel_65_via/quantum/keyboard.o
                0x00001d6c                keyboard_setup
 .text.is_keyboard_master
                0x00001d7e        0x4 .build/obj_custom_parallel_65_via/quantum/keyboard.o
                0x00001d7e                is_keyboard_master
 .text.matrix_can_read
                0x00001d82        0x6 .build/obj_custom_parallel_65_via/quantum/keyboard.o
                0x00001d82                matrix_can_read
 .text.should_process_keypress
                0x00001d88        0x6 .build/obj_custom_parallel_65_via/quantum/keyboard.o
                0x00001d88                should_process_keypress
 .text.housekeeping_task_kb
                0x00001d8e        0x2 .build/obj_custom_parallel_65_via/quantum/keyboard.o
                0x00001d8e                housekeeping_task_kb
 .text.housekeeping_task_user
                0x00001d90        0x2 .build/obj_custom_parallel_65_via/quantum/keyboard.o
                0x00001d90                housekeeping_task_user
 .text.housekeeping_task
                0x00001d92        0xa .build/obj_custom_parallel_65_via/quantum/keyboard.o
                0x00001d92                housekeeping_task
 .text.quantum_init
                0x00001d9c       0x36 .build/obj_custom_parallel_65_via/quantum/keyboard.o
                0x00001d9c                quantum_init
 .text.keyboard_init
                0x00001dd2       0x1e .build/obj_custom_parallel_65_via/quantum/keyboard.o
                0x00001dd2                keyboard_init
 .text.keyboard_task
                0x00001df0       0xf2 .build/obj_custom_parallel_65_via/quantum/keyboard.o
                0x00001df0                keyboard_task
 .text.action_for_keycode
                0x00001ee2      0x232 .build/obj_custom_parallel_65_via/quantum/keymap_common.o
                0x00001ee2                action_for_keycode
 .text.keymap_key_to_keycode
                0x00002114       0x18 .build/obj_custom_parallel_65_via/quantum/keymap_common.o
                0x00002114                keymap_key_to_keycode
 .text.action_for_key
                0x0000212c        0xa .build/obj_custom_parallel_65_via/quantum/keymap_common.o
                0x0000212c                action_for_key
 .text.keycode_config
                0x00002136      0x148 .build/obj_custom_parallel_65_via/quantum/keycode_config.o
                0x00002136                keycode_config
 .text.mod_config
                0x0000227e       0x9e .build/obj_custom_parallel_65_via/quantum/keycode_config.o
                0x0000227e                mod_config
 .text.sendchar
                0x0000231c        0x4 .build/obj_custom_parallel_65_via/quantum/logging/sendchar.o
                0x0000231c                sendchar
 .text.matrix_init_user
                0x00002320        0x2 .build/obj_custom_parallel_65_via/quantum/matrix_common.o
                0x00002320                matrix_init_user
 .text.matrix_init_kb
                0x00002322        0x6 .build/obj_custom_parallel_65_via/quantum/matrix_common.o
                0x00002322                matrix_init_kb
 .text.matrix_scan_user
                0x00002328        0x2 .build/obj_custom_parallel_65_via/quantum/matrix_common.o
                0x00002328                matrix_scan_user
 .text.matrix_scan_kb
                0x0000232a        0x6 .build/obj_custom_parallel_65_via/quantum/matrix_common.o
                0x0000232a                matrix_scan_kb
 .text.matrix_get_row
                0x00002330       0x12 .build/obj_custom_parallel_65_via/quantum/matrix_common.o
                0x00002330                matrix_get_row
 .text.matrix_print
                0x00002342        0x2 .build/obj_custom_parallel_65_via/quantum/matrix_common.o
                0x00002342                matrix_print
 .text.matrix_io_delay
                0x00002344        0x8 .build/obj_custom_parallel_65_via/quantum/matrix_common.o
                0x00002344                matrix_io_delay
 .text.matrix_output_select_delay
                0x0000234c        0x4 .build/obj_custom_parallel_65_via/quantum/matrix_common.o
                0x0000234c                matrix_output_select_delay
 .text.matrix_output_unselect_delay
                0x00002350        0x6 .build/obj_custom_parallel_65_via/quantum/matrix_common.o
                0x00002350                matrix_output_unselect_delay
 .text.gpio_atomic_set_pin_input_high
                0x00002356       0x32 .build/obj_custom_parallel_65_via/quantum/matrix.o
 .text.matrix_init_pins
                0x00002388       0x40 .build/obj_custom_parallel_65_via/quantum/matrix.o
                0x00002388                matrix_init_pins
 .text.matrix_read_cols_on_row
                0x000023c8       0xce .build/obj_custom_parallel_65_via/quantum/matrix.o
                0x000023c8                matrix_read_cols_on_row
 .text.matrix_init
                0x00002496       0x2c .build/obj_custom_parallel_65_via/quantum/matrix.o
                0x00002496                matrix_init
 .text.matrix_scan
                0x000024c2       0x7a .build/obj_custom_parallel_65_via/quantum/matrix.o
                0x000024c2                matrix_scan
 .text.debounce_init
                0x0000253c        0x2 .build/obj_custom_parallel_65_via/quantum/debounce/sym_defer_g.o
                0x0000253c                debounce_init
 .text.debounce
                0x0000253e       0x82 .build/obj_custom_parallel_65_via/quantum/debounce/sym_defer_g.o
                0x0000253e                debounce
 .text.protocol_keyboard_task
                0x000025c0        0x6 .build/obj_custom_parallel_65_via/quantum/main.o
                0x000025c0                protocol_keyboard_task
 .text.startup.main
                0x000025c6       0x2e .build/obj_custom_parallel_65_via/quantum/main.o
                0x000025c6                main
 .text.print_set_sendchar
                0x000025f4        0xa .build/obj_custom_parallel_65_via/platforms/avr/printf.o
                0x000025f4                print_set_sendchar
 .text.hsv_to_rgb_impl
                0x000025fe      0x12a .build/obj_custom_parallel_65_via/quantum/color.o
                0x000025fe                hsv_to_rgb_impl
 .text.hsv_to_rgb
                0x00002728        0x8 .build/obj_custom_parallel_65_via/quantum/color.o
                0x00002728                hsv_to_rgb
 .text.scale16by8
                0x00002730       0x14 .build/obj_custom_parallel_65_via/quantum/rgb_matrix/rgb_matrix.o
 .text.sqrt16   0x00002744       0x60 .build/obj_custom_parallel_65_via/quantum/rgb_matrix/rgb_matrix.o
 .text.BAND_SAT_math
                0x000027a4       0x58 .build/obj_custom_parallel_65_via/quantum/rgb_matrix/rgb_matrix.o
 .text.SPLASH_math
                0x000027fc       0x30 .build/obj_custom_parallel_65_via/quantum/rgb_matrix/rgb_matrix.o
                0x000027fc                SPLASH_math
 .text.SOLID_SPLASH_math
                0x0000282c       0x2c .build/obj_custom_parallel_65_via/quantum/rgb_matrix/rgb_matrix.o
                0x0000282c                SOLID_SPLASH_math
 .text.eeconfig_flag_rgb_matrix
                0x00002858        0xc .build/obj_custom_parallel_65_via/quantum/rgb_matrix/rgb_matrix.o
 .text.atan2_8  0x00002864       0x5e .build/obj_custom_parallel_65_via/quantum/rgb_matrix/rgb_matrix.o
 .text.BAND_PINWHEEL_SAT_math
                0x000028c2       0x3c .build/obj_custom_parallel_65_via/quantum/rgb_matrix/rgb_matrix.o
 .text.BAND_PINWHEEL_VAL_math
                0x000028fe       0x3e .build/obj_custom_parallel_65_via/quantum/rgb_matrix/rgb_matrix.o
 .text.BAND_SPIRAL_SAT_math
                0x0000293c       0x36 .build/obj_custom_parallel_65_via/quantum/rgb_matrix/rgb_matrix.o
 .text.eeconfig_flush_rgb_matrix.part.0
                0x00002972       0x16 .build/obj_custom_parallel_65_via/quantum/rgb_matrix/rgb_matrix.o
 .text.rgb_matrix_hsv_to_rgb
                0x00002988        0x6 .build/obj_custom_parallel_65_via/quantum/rgb_matrix/rgb_matrix.o
                0x00002988                rgb_matrix_hsv_to_rgb
 .text.eeconfig_update_rgb_matrix
                0x0000298e        0x6 .build/obj_custom_parallel_65_via/quantum/rgb_matrix/rgb_matrix.o
                0x0000298e                eeconfig_update_rgb_matrix
 .text.eeconfig_update_rgb_matrix_default
                0x00002994       0x28 .build/obj_custom_parallel_65_via/quantum/rgb_matrix/rgb_matrix.o
                0x00002994                eeconfig_update_rgb_matrix_default
 .text.rgb_matrix_map_row_column_to_led_kb
                0x000029bc        0x4 .build/obj_custom_parallel_65_via/quantum/rgb_matrix/rgb_matrix.o
                0x000029bc                rgb_matrix_map_row_column_to_led_kb
 .text.rgb_matrix_map_row_column_to_led
                0x000029c0       0x3e .build/obj_custom_parallel_65_via/quantum/rgb_matrix/rgb_matrix.o
                0x000029c0                rgb_matrix_map_row_column_to_led
 .text.rgb_matrix_update_pwm_buffers
                0x000029fe        0xc .build/obj_custom_parallel_65_via/quantum/rgb_matrix/rgb_matrix.o
                0x000029fe                rgb_matrix_update_pwm_buffers
 .text.rgb_matrix_set_color
                0x00002a0a        0xc .build/obj_custom_parallel_65_via/quantum/rgb_matrix/rgb_matrix.o
                0x00002a0a                rgb_matrix_set_color
 .text.rgb_matrix_set_color_all
                0x00002a16        0xc .build/obj_custom_parallel_65_via/quantum/rgb_matrix/rgb_matrix.o
                0x00002a16                rgb_matrix_set_color_all
 .text.rgb_matrix_handle_key_event
                0x00002a22      0x128 .build/obj_custom_parallel_65_via/quantum/rgb_matrix/rgb_matrix.o
                0x00002a22                rgb_matrix_handle_key_event
 .text.rgb_matrix_indicators_user
                0x00002b4a        0x4 .build/obj_custom_parallel_65_via/quantum/rgb_matrix/rgb_matrix.o
                0x00002b4a                rgb_matrix_indicators_user
 .text.rgb_matrix_indicators_kb
                0x00002b4e        0x6 .build/obj_custom_parallel_65_via/quantum/rgb_matrix/rgb_matrix.o
                0x00002b4e                rgb_matrix_indicators_kb
 .text.rgb_matrix_get_limits
                0x00002b54       0x12 .build/obj_custom_parallel_65_via/quantum/rgb_matrix/rgb_matrix.o
                0x00002b54                rgb_matrix_get_limits
 .text.effect_runner_dx_dy_dist
                0x00002b66       0xd0 .build/obj_custom_parallel_65_via/quantum/rgb_matrix/rgb_matrix.o
                0x00002b66                effect_runner_dx_dy_dist
 .text.BAND_SPIRAL_SAT
                0x00002c36        0xa .build/obj_custom_parallel_65_via/quantum/rgb_matrix/rgb_matrix.o
                0x00002c36                BAND_SPIRAL_SAT
 .text.effect_runner_dx_dy
                0x00002c40       0xba .build/obj_custom_parallel_65_via/quantum/rgb_matrix/rgb_matrix.o
                0x00002c40                effect_runner_dx_dy
 .text.BAND_PINWHEEL_SAT
                0x00002cfa        0xa .build/obj_custom_parallel_65_via/quantum/rgb_matrix/rgb_matrix.o
                0x00002cfa                BAND_PINWHEEL_SAT
 .text.BAND_PINWHEEL_VAL
                0x00002d04        0xa .build/obj_custom_parallel_65_via/quantum/rgb_matrix/rgb_matrix.o
                0x00002d04                BAND_PINWHEEL_VAL
 .text.effect_runner_i
                0x00002d0e       0x8c .build/obj_custom_parallel_65_via/quantum/rgb_matrix/rgb_matrix.o
                0x00002d0e                effect_runner_i
 .text.BAND_SAT
                0x00002d9a        0xa .build/obj_custom_parallel_65_via/quantum/rgb_matrix/rgb_matrix.o
                0x00002d9a                BAND_SAT
 .text.effect_runner_reactive_splash
                0x00002da4      0x140 .build/obj_custom_parallel_65_via/quantum/rgb_matrix/rgb_matrix.o
                0x00002da4                effect_runner_reactive_splash
 .text.SPLASH   0x00002ee4       0x1a .build/obj_custom_parallel_65_via/quantum/rgb_matrix/rgb_matrix.o
                0x00002ee4                SPLASH
 .text.SOLID_SPLASH
                0x00002efe       0x1a .build/obj_custom_parallel_65_via/quantum/rgb_matrix/rgb_matrix.o
                0x00002efe                SOLID_SPLASH
 .text.SOLID_COLOR
                0x00002f18       0x6a .build/obj_custom_parallel_65_via/quantum/rgb_matrix/rgb_matrix.o
                0x00002f18                SOLID_COLOR
 .text.ALPHAS_MODS
                0x00002f82       0x90 .build/obj_custom_parallel_65_via/quantum/rgb_matrix/rgb_matrix.o
                0x00002f82                ALPHAS_MODS
 .text.rgb_task_render
                0x00003012      0x118 .build/obj_custom_parallel_65_via/quantum/rgb_matrix/rgb_matrix.o
 .text.rgb_matrix_indicators_advanced_user
                0x0000312a        0x4 .build/obj_custom_parallel_65_via/quantum/rgb_matrix/rgb_matrix.o
                0x0000312a                rgb_matrix_indicators_advanced_user
 .text.rgb_matrix_indicators_advanced_kb
                0x0000312e        0x6 .build/obj_custom_parallel_65_via/quantum/rgb_matrix/rgb_matrix.o
                0x0000312e                rgb_matrix_indicators_advanced_kb
 .text.rgb_matrix_indicators_advanced
                0x00003134       0x12 .build/obj_custom_parallel_65_via/quantum/rgb_matrix/rgb_matrix.o
                0x00003134                rgb_matrix_indicators_advanced
 .text.rgb_matrix_task
                0x00003146      0x1a6 .build/obj_custom_parallel_65_via/quantum/rgb_matrix/rgb_matrix.o
                0x00003146                rgb_matrix_task
 .text.rgb_matrix_init
                0x000032ec       0x5a .build/obj_custom_parallel_65_via/quantum/rgb_matrix/rgb_matrix.o
                0x000032ec                rgb_matrix_init
 .text.rgb_matrix_set_suspend_state
                0x00003346       0x34 .build/obj_custom_parallel_65_via/quantum/rgb_matrix/rgb_matrix.o
                0x00003346                rgb_matrix_set_suspend_state
 .text.rgb_matrix_toggle_eeprom_helper
                0x0000337a       0x16 .build/obj_custom_parallel_65_via/quantum/rgb_matrix/rgb_matrix.o
                0x0000337a                rgb_matrix_toggle_eeprom_helper
 .text.rgb_matrix_toggle_noeeprom
                0x00003390        0x8 .build/obj_custom_parallel_65_via/quantum/rgb_matrix/rgb_matrix.o
                0x00003390                rgb_matrix_toggle_noeeprom
 .text.rgb_matrix_toggle
                0x00003398        0x8 .build/obj_custom_parallel_65_via/quantum/rgb_matrix/rgb_matrix.o
                0x00003398                rgb_matrix_toggle
 .text.rgb_matrix_enable_noeeprom
                0x000033a0       0x1c .build/obj_custom_parallel_65_via/quantum/rgb_matrix/rgb_matrix.o
                0x000033a0                rgb_matrix_enable_noeeprom
 .text.rgb_matrix_disable_noeeprom
                0x000033bc       0x18 .build/obj_custom_parallel_65_via/quantum/rgb_matrix/rgb_matrix.o
                0x000033bc                rgb_matrix_disable_noeeprom
 .text.rgb_matrix_is_enabled
                0x000033d4        0x8 .build/obj_custom_parallel_65_via/quantum/rgb_matrix/rgb_matrix.o
                0x000033d4                rgb_matrix_is_enabled
 .text.rgb_matrix_mode_eeprom_helper
                0x000033dc       0x3a .build/obj_custom_parallel_65_via/quantum/rgb_matrix/rgb_matrix.o
                0x000033dc                rgb_matrix_mode_eeprom_helper
 .text.rgb_matrix_mode_noeeprom
                0x00003416        0x8 .build/obj_custom_parallel_65_via/quantum/rgb_matrix/rgb_matrix.o
                0x00003416                rgb_matrix_mode_noeeprom
 .text.rgb_matrix_mode
                0x0000341e        0x8 .build/obj_custom_parallel_65_via/quantum/rgb_matrix/rgb_matrix.o
                0x0000341e                rgb_matrix_mode
 .text.rgb_matrix_get_mode
                0x00003426        0xa .build/obj_custom_parallel_65_via/quantum/rgb_matrix/rgb_matrix.o
                0x00003426                rgb_matrix_get_mode
 .text.rgb_matrix_step_helper
                0x00003430       0x18 .build/obj_custom_parallel_65_via/quantum/rgb_matrix/rgb_matrix.o
                0x00003430                rgb_matrix_step_helper
 .text.rgb_matrix_step
                0x00003448        0x8 .build/obj_custom_parallel_65_via/quantum/rgb_matrix/rgb_matrix.o
                0x00003448                rgb_matrix_step
 .text.rgb_matrix_step_reverse_helper
                0x00003450       0x1a .build/obj_custom_parallel_65_via/quantum/rgb_matrix/rgb_matrix.o
                0x00003450                rgb_matrix_step_reverse_helper
 .text.rgb_matrix_step_reverse
                0x0000346a        0x8 .build/obj_custom_parallel_65_via/quantum/rgb_matrix/rgb_matrix.o
                0x0000346a                rgb_matrix_step_reverse
 .text.rgb_matrix_sethsv_eeprom_helper
                0x00003472       0x26 .build/obj_custom_parallel_65_via/quantum/rgb_matrix/rgb_matrix.o
                0x00003472                rgb_matrix_sethsv_eeprom_helper
 .text.rgb_matrix_sethsv_noeeprom
                0x00003498        0x8 .build/obj_custom_parallel_65_via/quantum/rgb_matrix/rgb_matrix.o
                0x00003498                rgb_matrix_sethsv_noeeprom
 .text.rgb_matrix_get_hue
                0x000034a0        0x6 .build/obj_custom_parallel_65_via/quantum/rgb_matrix/rgb_matrix.o
                0x000034a0                rgb_matrix_get_hue
 .text.rgb_matrix_get_sat
                0x000034a6        0x6 .build/obj_custom_parallel_65_via/quantum/rgb_matrix/rgb_matrix.o
                0x000034a6                rgb_matrix_get_sat
 .text.rgb_matrix_get_val
                0x000034ac        0x6 .build/obj_custom_parallel_65_via/quantum/rgb_matrix/rgb_matrix.o
                0x000034ac                rgb_matrix_get_val
 .text.rgb_matrix_increase_hue_helper
                0x000034b2       0x18 .build/obj_custom_parallel_65_via/quantum/rgb_matrix/rgb_matrix.o
                0x000034b2                rgb_matrix_increase_hue_helper
 .text.rgb_matrix_increase_hue
                0x000034ca        0x8 .build/obj_custom_parallel_65_via/quantum/rgb_matrix/rgb_matrix.o
                0x000034ca                rgb_matrix_increase_hue
 .text.rgb_matrix_decrease_hue_helper
                0x000034d2       0x16 .build/obj_custom_parallel_65_via/quantum/rgb_matrix/rgb_matrix.o
                0x000034d2                rgb_matrix_decrease_hue_helper
 .text.rgb_matrix_decrease_hue
                0x000034e8        0x8 .build/obj_custom_parallel_65_via/quantum/rgb_matrix/rgb_matrix.o
                0x000034e8                rgb_matrix_decrease_hue
 .text.rgb_matrix_increase_sat_helper
                0x000034f0       0x1c .build/obj_custom_parallel_65_via/quantum/rgb_matrix/rgb_matrix.o
                0x000034f0                rgb_matrix_increase_sat_helper
 .text.rgb_matrix_increase_sat
                0x0000350c        0x8 .build/obj_custom_parallel_65_via/quantum/rgb_matrix/rgb_matrix.o
                0x0000350c                rgb_matrix_increase_sat
 .text.rgb_matrix_decrease_sat_helper
                0x00003514       0x1c .build/obj_custom_parallel_65_via/quantum/rgb_matrix/rgb_matrix.o
                0x00003514                rgb_matrix_decrease_sat_helper
 .text.rgb_matrix_decrease_sat
                0x00003530        0x8 .build/obj_custom_parallel_65_via/quantum/rgb_matrix/rgb_matrix.o
                0x00003530                rgb_matrix_decrease_sat
 .text.rgb_matrix_increase_val_helper
                0x00003538       0x1c .build/obj_custom_parallel_65_via/quantum/rgb_matrix/rgb_matrix.o
                0x00003538                rgb_matrix_increase_val_helper
 .text.rgb_matrix_increase_val
                0x00003554        0x8 .build/obj_custom_parallel_65_via/quantum/rgb_matrix/rgb_matrix.o
                0x00003554                rgb_matrix_increase_val
 .text.rgb_matrix_decrease_val_helper
                0x0000355c       0x1c .build/obj_custom_parallel_65_via/quantum/rgb_matrix/rgb_matrix.o
                0x0000355c                rgb_matrix_decrease_val_helper
 .text.rgb_matrix_decrease_val
                0x00003578        0x8 .build/obj_custom_parallel_65_via/quantum/rgb_matrix/rgb_matrix.o
                0x00003578                rgb_matrix_decrease_val
 .text.rgb_matrix_set_speed_noeeprom
                0x00003580        0xc .build/obj_custom_parallel_65_via/quantum/rgb_matrix/rgb_matrix.o
                0x00003580                rgb_matrix_set_speed_noeeprom
 .text.rgb_matrix_get_speed
                0x0000358c        0x6 .build/obj_custom_parallel_65_via/quantum/rgb_matrix/rgb_matrix.o
                0x0000358c                rgb_matrix_get_speed
 .text.rgb_matrix_increase_speed_helper
                0x00003592       0x16 .build/obj_custom_parallel_65_via/quantum/rgb_matrix/rgb_matrix.o
                0x00003592                rgb_matrix_increase_speed_helper
 .text.rgb_matrix_increase_speed
                0x000035a8        0x8 .build/obj_custom_parallel_65_via/quantum/rgb_matrix/rgb_matrix.o
                0x000035a8                rgb_matrix_increase_speed
 .text.rgb_matrix_decrease_speed_helper
                0x000035b0       0x16 .build/obj_custom_parallel_65_via/quantum/rgb_matrix/rgb_matrix.o
                0x000035b0                rgb_matrix_decrease_speed_helper
 .text.rgb_matrix_decrease_speed
                0x000035c6        0x8 .build/obj_custom_parallel_65_via/quantum/rgb_matrix/rgb_matrix.o
                0x000035c6                rgb_matrix_decrease_speed
 .text.setled   0x000035ce       0x42 .build/obj_custom_parallel_65_via/quantum/rgb_matrix/rgb_matrix_drivers.o
 .text.setled_all
                0x00003610       0x32 .build/obj_custom_parallel_65_via/quantum/rgb_matrix/rgb_matrix_drivers.o
 .text.flush    0x00003642       0x1a .build/obj_custom_parallel_65_via/quantum/rgb_matrix/rgb_matrix_drivers.o
 .text.init     0x0000365c        0xa .build/obj_custom_parallel_65_via/quantum/rgb_matrix/rgb_matrix_drivers.o
 .text.handleKeycodeRGB
                0x00003666        0xe .build/obj_custom_parallel_65_via/quantum/process_keycode/process_rgb.o
 .text.process_rgb
                0x00003674       0xae .build/obj_custom_parallel_65_via/quantum/process_keycode/process_rgb.o
                0x00003674                process_rgb
 .text.ws2812_init
                0x00003722        0x4 .build/obj_custom_parallel_65_via/ws2812_bitbang.o
                0x00003722                ws2812_init
 .text.ws2812_setleds
                0x00003726       0x5a .build/obj_custom_parallel_65_via/ws2812_bitbang.o
                0x00003726                ws2812_setleds
 .text.bootmagic_reset_eeprom
                0x00003780        0x6 .build/obj_custom_parallel_65_via/quantum/bootmagic/bootmagic.o
                0x00003780                bootmagic_reset_eeprom
 .text.bootmagic_should_reset
                0x00003786        0xa .build/obj_custom_parallel_65_via/quantum/bootmagic/bootmagic.o
                0x00003786                bootmagic_should_reset
 .text.bootmagic_scan
                0x00003790       0x2c .build/obj_custom_parallel_65_via/quantum/bootmagic/bootmagic.o
                0x00003790                bootmagic_scan
 .text.bootmagic
                0x000037bc        0x6 .build/obj_custom_parallel_65_via/quantum/bootmagic/bootmagic.o
                0x000037bc                bootmagic
 .text.dynamic_keymap_get_layer_count
                0x000037c2        0x4 .build/obj_custom_parallel_65_via/quantum/dynamic_keymap.o
                0x000037c2                dynamic_keymap_get_layer_count
 .text.dynamic_keymap_key_to_eeprom_address
                0x000037c6       0x22 .build/obj_custom_parallel_65_via/quantum/dynamic_keymap.o
                0x000037c6                dynamic_keymap_key_to_eeprom_address
 .text.dynamic_keymap_get_keycode
                0x000037e8       0x44 .build/obj_custom_parallel_65_via/quantum/dynamic_keymap.o
                0x000037e8                dynamic_keymap_get_keycode
 .text.dynamic_keymap_set_keycode
                0x0000382c       0x38 .build/obj_custom_parallel_65_via/quantum/dynamic_keymap.o
                0x0000382c                dynamic_keymap_set_keycode
 .text.dynamic_keymap_reset
                0x00003864       0x40 .build/obj_custom_parallel_65_via/quantum/dynamic_keymap.o
                0x00003864                dynamic_keymap_reset
 .text.dynamic_keymap_get_buffer
                0x000038a4       0x42 .build/obj_custom_parallel_65_via/quantum/dynamic_keymap.o
                0x000038a4                dynamic_keymap_get_buffer
 .text.dynamic_keymap_set_buffer
                0x000038e6       0x40 .build/obj_custom_parallel_65_via/quantum/dynamic_keymap.o
                0x000038e6                dynamic_keymap_set_buffer
 .text.keycode_at_keymap_location
                0x00003926       0x18 .build/obj_custom_parallel_65_via/quantum/dynamic_keymap.o
                0x00003926                keycode_at_keymap_location
 .text.dynamic_keymap_macro_get_count
                0x0000393e        0x4 .build/obj_custom_parallel_65_via/quantum/dynamic_keymap.o
                0x0000393e                dynamic_keymap_macro_get_count
 .text.dynamic_keymap_macro_get_buffer_size
                0x00003942        0x6 .build/obj_custom_parallel_65_via/quantum/dynamic_keymap.o
                0x00003942                dynamic_keymap_macro_get_buffer_size
 .text.dynamic_keymap_macro_get_buffer
                0x00003948       0x44 .build/obj_custom_parallel_65_via/quantum/dynamic_keymap.o
                0x00003948                dynamic_keymap_macro_get_buffer
 .text.dynamic_keymap_macro_set_buffer
                0x0000398c       0x42 .build/obj_custom_parallel_65_via/quantum/dynamic_keymap.o
                0x0000398c                dynamic_keymap_macro_set_buffer
 .text.dynamic_keymap_macro_reset
                0x000039ce       0x20 .build/obj_custom_parallel_65_via/quantum/dynamic_keymap.o
                0x000039ce                dynamic_keymap_macro_reset
 .text.dynamic_keymap_macro_send
                0x000039ee       0xfc .build/obj_custom_parallel_65_via/quantum/dynamic_keymap.o
                0x000039ee                dynamic_keymap_macro_send
 .text.process_grave_esc
                0x00003aea       0x56 .build/obj_custom_parallel_65_via/quantum/process_keycode/process_grave_esc.o
                0x00003aea                process_grave_esc
 .text.process_magic
                0x00003b40      0x1b8 .build/obj_custom_parallel_65_via/quantum/process_keycode/process_magic.o
                0x00003b40                process_magic
 .text.times_inv_sqrt2
                0x00003cf8       0x1c .build/obj_custom_parallel_65_via/quantum/mousekey.o
 .text.move_unit
                0x00003d14       0x90 .build/obj_custom_parallel_65_via/quantum/mousekey.o
 .text.wheel_unit
                0x00003da4       0x78 .build/obj_custom_parallel_65_via/quantum/mousekey.o
 .text.mousekey_on
                0x00003e1c       0x92 .build/obj_custom_parallel_65_via/quantum/mousekey.o
                0x00003e1c                mousekey_on
 .text.mousekey_off
                0x00003eae       0xf0 .build/obj_custom_parallel_65_via/quantum/mousekey.o
                0x00003eae                mousekey_off
 .text.mousekey_send
                0x00003f9e       0x3a .build/obj_custom_parallel_65_via/quantum/mousekey.o
                0x00003f9e                mousekey_send
 .text.mousekey_clear
                0x00003fd8       0x1c .build/obj_custom_parallel_65_via/quantum/mousekey.o
                0x00003fd8                mousekey_clear
 .text.should_mousekey_report_send
                0x00003ff4       0x26 .build/obj_custom_parallel_65_via/quantum/mousekey.o
                0x00003ff4                should_mousekey_report_send
 .text.mousekey_task
                0x0000401a      0x1e0 .build/obj_custom_parallel_65_via/quantum/mousekey.o
                0x0000401a                mousekey_task
 .text.send_char_with_delay
                0x000041fa      0x148 .build/obj_custom_parallel_65_via/quantum/send_string/send_string.o
                0x000041fa                send_char_with_delay
 .text.send_string_with_delay
                0x00004342       0xd6 .build/obj_custom_parallel_65_via/quantum/send_string/send_string.o
                0x00004342                send_string_with_delay
 .text.perform_space_cadet
                0x00004418       0xde .build/obj_custom_parallel_65_via/quantum/process_keycode/process_space_cadet.o
                0x00004418                perform_space_cadet
 .text.process_space_cadet
                0x000044f6       0x82 .build/obj_custom_parallel_65_via/quantum/process_keycode/process_space_cadet.o
                0x000044f6                process_space_cadet
 .text.process_tri_layer
                0x00004578       0x64 .build/obj_custom_parallel_65_via/quantum/process_keycode/process_tri_layer.o
                0x00004578                process_tri_layer
 .text.get_tri_layer_lower_layer
                0x000045dc        0x6 .build/obj_custom_parallel_65_via/quantum/tri_layer.o
                0x000045dc                get_tri_layer_lower_layer
 .text.get_tri_layer_upper_layer
                0x000045e2        0x6 .build/obj_custom_parallel_65_via/quantum/tri_layer.o
                0x000045e2                get_tri_layer_upper_layer
 .text.get_tri_layer_adjust_layer
                0x000045e8        0x6 .build/obj_custom_parallel_65_via/quantum/tri_layer.o
                0x000045e8                get_tri_layer_adjust_layer
 .text.via_eeprom_is_valid
                0x000045ee       0x32 .build/obj_custom_parallel_65_via/quantum/via.o
                0x000045ee                via_eeprom_is_valid
 .text.via_eeprom_set_valid
                0x00004620       0x3c .build/obj_custom_parallel_65_via/quantum/via.o
                0x00004620                via_eeprom_set_valid
 .text.via_init_kb
                0x0000465c        0x2 .build/obj_custom_parallel_65_via/quantum/via.o
                0x0000465c                via_init_kb
 .text.via_get_layout_options
                0x0000465e       0x28 .build/obj_custom_parallel_65_via/quantum/via.o
                0x0000465e                via_get_layout_options
 .text.via_set_layout_options_kb
                0x00004686        0x2 .build/obj_custom_parallel_65_via/quantum/via.o
                0x00004686                via_set_layout_options_kb
 .text.via_set_layout_options
                0x00004688       0x16 .build/obj_custom_parallel_65_via/quantum/via.o
                0x00004688                via_set_layout_options
 .text.eeconfig_init_via
                0x0000469e       0x20 .build/obj_custom_parallel_65_via/quantum/via.o
                0x0000469e                eeconfig_init_via
 .text.via_init
                0x000046be       0x1a .build/obj_custom_parallel_65_via/quantum/via.o
                0x000046be                via_init
 .text.via_set_device_indication
                0x000046d8        0x6 .build/obj_custom_parallel_65_via/quantum/via.o
                0x000046d8                via_set_device_indication
 .text.process_record_via
                0x000046de       0x22 .build/obj_custom_parallel_65_via/quantum/via.o
                0x000046de                process_record_via
 .text.via_custom_value_command_kb
                0x00004700        0x8 .build/obj_custom_parallel_65_via/quantum/via.o
                0x00004700                via_custom_value_command_kb
 .text.via_command_kb
                0x00004708        0x4 .build/obj_custom_parallel_65_via/quantum/via.o
                0x00004708                via_command_kb
 .text.via_qmk_rgb_matrix_get_value
                0x0000470c       0x5a .build/obj_custom_parallel_65_via/quantum/via.o
                0x0000470c                via_qmk_rgb_matrix_get_value
 .text.via_qmk_rgb_matrix_set_value
                0x00004766       0x70 .build/obj_custom_parallel_65_via/quantum/via.o
                0x00004766                via_qmk_rgb_matrix_set_value
 .text.via_qmk_rgb_matrix_command
                0x000047d6       0x32 .build/obj_custom_parallel_65_via/quantum/via.o
                0x000047d6                via_qmk_rgb_matrix_command
 .text.via_custom_value_command
                0x00004808       0x14 .build/obj_custom_parallel_65_via/quantum/via.o
                0x00004808                via_custom_value_command
 .text.raw_hid_receive
                0x0000481c      0x274 .build/obj_custom_parallel_65_via/quantum/via.o
                0x0000481c                raw_hid_receive
 .text.host_set_driver
                0x00004a90        0xa .build/obj_custom_parallel_65_via/protocol/host.o
                0x00004a90                host_set_driver
 .text.host_keyboard_leds
                0x00004a9a       0x1a .build/obj_custom_parallel_65_via/protocol/host.o
                0x00004a9a                host_keyboard_leds
 .text.host_keyboard_led_state
                0x00004ab4        0x6 .build/obj_custom_parallel_65_via/protocol/host.o
                0x00004ab4                host_keyboard_led_state
 .text.host_keyboard_send
                0x00004aba       0x16 .build/obj_custom_parallel_65_via/protocol/host.o
                0x00004aba                host_keyboard_send
 .text.host_mouse_send
                0x00004ad0       0x1e .build/obj_custom_parallel_65_via/protocol/host.o
                0x00004ad0                host_mouse_send
 .text.host_system_send
                0x00004aee       0x4c .build/obj_custom_parallel_65_via/protocol/host.o
                0x00004aee                host_system_send
 .text.host_consumer_send
                0x00004b3a       0x4c .build/obj_custom_parallel_65_via/protocol/host.o
                0x00004b3a                host_consumer_send
 .text.has_anykey
                0x00004b86       0x28 .build/obj_custom_parallel_65_via/protocol/report.o
                0x00004b86                has_anykey
 .text.is_key_pressed
                0x00004bae       0x28 .build/obj_custom_parallel_65_via/protocol/report.o
                0x00004bae                is_key_pressed
 .text.add_key_byte
                0x00004bd6       0x34 .build/obj_custom_parallel_65_via/protocol/report.o
                0x00004bd6                add_key_byte
 .text.del_key_byte
                0x00004c0a       0x1e .build/obj_custom_parallel_65_via/protocol/report.o
                0x00004c0a                del_key_byte
 .text.add_key_to_report
                0x00004c28       0x10 .build/obj_custom_parallel_65_via/protocol/report.o
                0x00004c28                add_key_to_report
 .text.del_key_from_report
                0x00004c38       0x10 .build/obj_custom_parallel_65_via/protocol/report.o
                0x00004c38                del_key_from_report
 .text.clear_keys_from_report
                0x00004c48       0x16 .build/obj_custom_parallel_65_via/protocol/report.o
                0x00004c48                clear_keys_from_report
 .text.has_mouse_report_changed
                0x00004c5e       0x5a .build/obj_custom_parallel_65_via/protocol/report.o
                0x00004c5e                has_mouse_report_changed
 .text.notify_usb_device_state_change_user
                0x00004cb8        0x2 .build/obj_custom_parallel_65_via/protocol/usb_device_state.o
                0x00004cb8                notify_usb_device_state_change_user
 .text.notify_usb_device_state_change_kb
                0x00004cba        0x6 .build/obj_custom_parallel_65_via/protocol/usb_device_state.o
                0x00004cba                notify_usb_device_state_change_kb
 .text.usb_device_state_set_configuration
                0x00004cc0        0xc .build/obj_custom_parallel_65_via/protocol/usb_device_state.o
                0x00004cc0                usb_device_state_set_configuration
 .text.usb_device_state_set_suspend
                0x00004ccc        0xc .build/obj_custom_parallel_65_via/protocol/usb_device_state.o
                0x00004ccc                usb_device_state_set_suspend
 .text.usb_device_state_set_resume
                0x00004cd8        0x6 .build/obj_custom_parallel_65_via/protocol/usb_device_state.o
                0x00004cd8                usb_device_state_set_resume
 .text.usb_device_state_set_reset
                0x00004cde        0xc .build/obj_custom_parallel_65_via/protocol/usb_device_state.o
                0x00004cde                usb_device_state_set_reset
 .text.usb_device_state_init
                0x00004cea        0x6 .build/obj_custom_parallel_65_via/protocol/usb_device_state.o
                0x00004cea                usb_device_state_init
 .text.suspend_wakeup_init_user
                0x00004cf0        0x2 .build/obj_custom_parallel_65_via/platforms/suspend.o
                0x00004cf0                suspend_wakeup_init_user
 .text.suspend_power_down_user
                0x00004cf2        0x2 .build/obj_custom_parallel_65_via/platforms/suspend.o
                0x00004cf2                suspend_power_down_user
 .text.suspend_power_down_kb
                0x00004cf4        0x6 .build/obj_custom_parallel_65_via/platforms/suspend.o
                0x00004cf4                suspend_power_down_kb
 .text.matrix_power_up
                0x00004cfa        0x2 .build/obj_custom_parallel_65_via/platforms/suspend.o
                0x00004cfa                matrix_power_up
 .text.matrix_power_down
                0x00004cfc        0x2 .build/obj_custom_parallel_65_via/platforms/suspend.o
                0x00004cfc                matrix_power_down
 .text.suspend_wakeup_init_kb
                0x00004cfe        0x6 .build/obj_custom_parallel_65_via/platforms/suspend.o
                0x00004cfe                suspend_wakeup_init_kb
 .text.suspend_wakeup_condition
                0x00004d04       0x2a .build/obj_custom_parallel_65_via/platforms/suspend.o
                0x00004d04                suspend_wakeup_condition
 .text.platform_setup
                0x00004d2e        0xe .build/obj_custom_parallel_65_via/platforms/avr/platform.o
                0x00004d2e                platform_setup
 .text.__vector_12
                0x00004d3c       0x4e .build/obj_custom_parallel_65_via/platforms/avr/suspend.o
                0x00004d3c                __vector_12
 .text.suspend_power_down
                0x00004d8a       0x56 .build/obj_custom_parallel_65_via/platforms/avr/suspend.o
                0x00004d8a                suspend_power_down
 .text.suspend_wakeup_init
                0x00004de0        0xa .build/obj_custom_parallel_65_via/platforms/avr/suspend.o
                0x00004de0                suspend_wakeup_init
 .text.timer_init
                0x00004dea       0x12 .build/obj_custom_parallel_65_via/platforms/avr/timer.o
                0x00004dea                timer_init
 .text.timer_read
                0x00004dfc       0x18 .build/obj_custom_parallel_65_via/platforms/avr/timer.o
                0x00004dfc                timer_read
 .text.timer_read32
                0x00004e14       0x3a .build/obj_custom_parallel_65_via/platforms/avr/timer.o
                0x00004e14                timer_read32
 .text.timer_elapsed
                0x00004e4e       0x1e .build/obj_custom_parallel_65_via/platforms/avr/timer.o
                0x00004e4e                timer_elapsed
 .text.timer_elapsed32
                0x00004e6c       0x40 .build/obj_custom_parallel_65_via/platforms/avr/timer.o
                0x00004e6c                timer_elapsed32
 .text.__vector_21
                0x00004eac       0x48 .build/obj_custom_parallel_65_via/platforms/avr/timer.o
                0x00004eac                __vector_21
 .text.bootloader_jump
                0x00004ef4       0x48 .build/obj_custom_parallel_65_via/platforms/avr/bootloaders/dfu.o
                0x00004ef4                bootloader_jump
 .text.mcu_reset
                0x00004f3c       0x16 .build/obj_custom_parallel_65_via/platforms/avr/bootloaders/dfu.o
                0x00004f3c                mcu_reset
 .text.keyboard_leds
                0x00004f52        0x6 .build/obj_custom_parallel_65_via/lufa.o
 .text.send_nkro
                0x00004f58        0x2 .build/obj_custom_parallel_65_via/lufa.o
 .text.send_report
                0x00004f5a       0x48 .build/obj_custom_parallel_65_via/lufa.o
                0x00004f5a                send_report
 .text.send_extra
                0x00004fa2        0xe .build/obj_custom_parallel_65_via/lufa.o
 .text.send_mouse
                0x00004fb0        0xe .build/obj_custom_parallel_65_via/lufa.o
 .text.send_keyboard
                0x00004fbe       0x2e .build/obj_custom_parallel_65_via/lufa.o
 .text.raw_hid_send
                0x00004fec       0x14 .build/obj_custom_parallel_65_via/lufa.o
                0x00004fec                raw_hid_send
 .text.raw_hid_task
                0x00005000       0x62 .build/obj_custom_parallel_65_via/lufa.o
                0x00005000                raw_hid_task
 .text.EVENT_USB_Device_Connect
                0x00005062       0x1c .build/obj_custom_parallel_65_via/lufa.o
                0x00005062                EVENT_USB_Device_Connect
 .text.EVENT_USB_Device_Disconnect
                0x0000507e        0x6 .build/obj_custom_parallel_65_via/lufa.o
                0x0000507e                EVENT_USB_Device_Disconnect
 .text.EVENT_USB_Device_Reset
                0x00005084        0x6 .build/obj_custom_parallel_65_via/lufa.o
                0x00005084                EVENT_USB_Device_Reset
 .text.EVENT_USB_Device_Suspend
                0x0000508a       0x12 .build/obj_custom_parallel_65_via/lufa.o
                0x0000508a                EVENT_USB_Device_Suspend
 .text.EVENT_USB_Device_WakeUp
                0x0000509c       0x16 .build/obj_custom_parallel_65_via/lufa.o
                0x0000509c                EVENT_USB_Device_WakeUp
 .text.EVENT_USB_Device_ConfigurationChanged
                0x000050b2       0x3e .build/obj_custom_parallel_65_via/lufa.o
                0x000050b2                EVENT_USB_Device_ConfigurationChanged
 .text.EVENT_USB_Device_ControlRequest
                0x000050f0      0x174 .build/obj_custom_parallel_65_via/lufa.o
                0x000050f0                EVENT_USB_Device_ControlRequest
 .text.protocol_setup
                0x00005264       0x34 .build/obj_custom_parallel_65_via/lufa.o
                0x00005264                protocol_setup
 .text.protocol_pre_init
                0x00005298       0x1a .build/obj_custom_parallel_65_via/lufa.o
                0x00005298                protocol_pre_init
 .text.protocol_post_init
                0x000052b2        0xa .build/obj_custom_parallel_65_via/lufa.o
                0x000052b2                protocol_post_init
 .text.protocol_pre_task
                0x000052bc       0x34 .build/obj_custom_parallel_65_via/lufa.o
                0x000052bc                protocol_pre_task
 .text.protocol_post_task
                0x000052f0        0x2 .build/obj_custom_parallel_65_via/lufa.o
                0x000052f0                protocol_post_task
 .text.CALLBACK_USB_GetDescriptor
                0x000052f2       0x10 .build/obj_custom_parallel_65_via/lufa.o
                0x000052f2                CALLBACK_USB_GetDescriptor
 .text.get_usb_descriptor
                0x00005302       0xb4 .build/obj_custom_parallel_65_via/usb_descriptor.o
                0x00005302                get_usb_descriptor
 .text.USB_Device_SendRemoteWakeup
                0x000053b6       0x2c .build/obj_custom_parallel_65_via/lib/lufa/LUFA/Drivers/USB/Core/AVR8/Device_AVR8.o
                0x000053b6                USB_Device_SendRemoteWakeup
 .text.Endpoint_Write_Stream_LE
                0x000053e2       0x9e .build/obj_custom_parallel_65_via/lib/lufa/LUFA/Drivers/USB/Core/AVR8/EndpointStream_AVR8.o
                0x000053e2                Endpoint_Write_Stream_LE
 .text.Endpoint_Read_Stream_LE
                0x00005480       0x9e .build/obj_custom_parallel_65_via/lib/lufa/LUFA/Drivers/USB/Core/AVR8/EndpointStream_AVR8.o
                0x00005480                Endpoint_Read_Stream_LE
 .text.Endpoint_Write_Control_Stream_LE
                0x0000551e       0xb4 .build/obj_custom_parallel_65_via/lib/lufa/LUFA/Drivers/USB/Core/AVR8/EndpointStream_AVR8.o
                0x0000551e                Endpoint_Write_Control_Stream_LE
 .text.Endpoint_Write_Control_PStream_LE
                0x000055d2       0xb6 .build/obj_custom_parallel_65_via/lib/lufa/LUFA/Drivers/USB/Core/AVR8/EndpointStream_AVR8.o
                0x000055d2                Endpoint_Write_Control_PStream_LE
 .text.Endpoint_ConfigureEndpoint_Prv
                0x00005688       0x68 .build/obj_custom_parallel_65_via/lib/lufa/LUFA/Drivers/USB/Core/AVR8/Endpoint_AVR8.o
                0x00005688                Endpoint_ConfigureEndpoint_Prv
 .text.Endpoint_ClearStatusStage
                0x000056f0       0x3e .build/obj_custom_parallel_65_via/lib/lufa/LUFA/Drivers/USB/Core/AVR8/Endpoint_AVR8.o
                0x000056f0                Endpoint_ClearStatusStage
 .text.Endpoint_WaitUntilReady
                0x0000572e       0x62 .build/obj_custom_parallel_65_via/lib/lufa/LUFA/Drivers/USB/Core/AVR8/Endpoint_AVR8.o
                0x0000572e                Endpoint_WaitUntilReady
 .text.USB_Disable
                0x00005790       0x34 .build/obj_custom_parallel_65_via/lib/lufa/LUFA/Drivers/USB/Core/AVR8/USBController_AVR8.o
                0x00005790                USB_Disable
 .text.USB_ResetInterface
                0x000057c4       0x86 .build/obj_custom_parallel_65_via/lib/lufa/LUFA/Drivers/USB/Core/AVR8/USBController_AVR8.o
                0x000057c4                USB_ResetInterface
 .text.USB_Init
                0x0000584a       0x24 .build/obj_custom_parallel_65_via/lib/lufa/LUFA/Drivers/USB/Core/AVR8/USBController_AVR8.o
                0x0000584a                USB_Init
 .text.USB_INT_DisableAllInterrupts
                0x0000586e       0x10 .build/obj_custom_parallel_65_via/lib/lufa/LUFA/Drivers/USB/Core/AVR8/USBInterrupt_AVR8.o
                0x0000586e                USB_INT_DisableAllInterrupts
 .text.USB_INT_ClearAllInterrupts
                0x0000587e        0xa .build/obj_custom_parallel_65_via/lib/lufa/LUFA/Drivers/USB/Core/AVR8/USBInterrupt_AVR8.o
                0x0000587e                USB_INT_ClearAllInterrupts
 .text.__vector_10
                0x00005888      0x1a6 .build/obj_custom_parallel_65_via/lib/lufa/LUFA/Drivers/USB/Core/AVR8/USBInterrupt_AVR8.o
                0x00005888                __vector_10
 .text.__vector_11
                0x00005a2e       0x92 .build/obj_custom_parallel_65_via/lib/lufa/LUFA/Drivers/USB/Core/AVR8/USBInterrupt_AVR8.o
                0x00005a2e                __vector_11
 .text.USB_Device_ProcessControlRequest
                0x00005ac0      0x28e .build/obj_custom_parallel_65_via/lib/lufa/LUFA/Drivers/USB/Core/DeviceStandardReq.o
                0x00005ac0                USB_Device_ProcessControlRequest
 .text.USB_Event_Stub
                0x00005d4e        0x2 .build/obj_custom_parallel_65_via/lib/lufa/LUFA/Drivers/USB/Core/Events.o
                0x00005d4e                EVENT_USB_Device_StartOfFrame
                0x00005d4e                USB_Event_Stub
 .text.USB_USBTask
                0x00005d50       0x34 .build/obj_custom_parallel_65_via/lib/lufa/LUFA/Drivers/USB/Core/USBTask.o
                0x00005d50                USB_USBTask
 .text.libgcc.div
                0x00005d84       0x28 c:/qmk_msys/mingw64/bin/../lib/gcc/avr/12.2.0/avr5\libgcc.a(_udivmodhi4.o)
                0x00005d84                __udivmodhi4
 .text.libgcc.div
                0x00005dac       0x28 c:/qmk_msys/mingw64/bin/../lib/gcc/avr/12.2.0/avr5\libgcc.a(_divmodhi4.o)
                0x00005dac                _div
                0x00005dac                __divmodhi4
 .text.libgcc   0x00005dd4        0xc c:/qmk_msys/mingw64/bin/../lib/gcc/avr/12.2.0/avr5\libgcc.a(_tablejump2.o)
                0x00005dd4                __tablejump2__
 .text.libgcc.builtins
                0x00005de0        0xe c:/qmk_msys/mingw64/bin/../lib/gcc/avr/12.2.0/avr5\libgcc.a(_bswapsi2.o)
                0x00005de0                __bswapsi2
 .text.libgcc.prologue
                0x00005dee       0x38 c:/qmk_msys/mingw64/bin/../lib/gcc/avr/12.2.0/avr5\libgcc.a(_prologue.o)
                0x00005dee                __prologue_saves__
 .text.libgcc.prologue
                0x00005e26       0x36 c:/qmk_msys/mingw64/bin/../lib/gcc/avr/12.2.0/avr5\libgcc.a(_epilogue.o)
                0x00005e26                __epilogue_restores__
 .text.avr-libc
                0x00005e5c       0x1a c:/qmk_msys/mingw64/bin/../lib/gcc/avr/12.2.0/../../../../avr/lib/avr5\libc.a(memcmp.o)
                0x00005e5c                memcmp
 .text.avr-libc
                0x00005e76       0x12 c:/qmk_msys/mingw64/bin/../lib/gcc/avr/12.2.0/../../../../avr/lib/avr5\libc.a(memcpy.o)
                0x00005e76                memcpy
 .text.avr-libc
                0x00005e88        0xe c:/qmk_msys/mingw64/bin/../lib/gcc/avr/12.2.0/../../../../avr/lib/avr5\libc.a(memset.o)
                0x00005e88                memset
 .text.avr-libc
                0x00005e96       0x20 c:/qmk_msys/mingw64/bin/../lib/gcc/avr/12.2.0/../../../../avr/lib/avr5\libatmega32u4.a(eerd_block.o)
                0x00005e96                eeprom_read_block
                0x00005e9a                eeprom_read_blraw
 .text.avr-libc
                0x00005eb6       0x10 c:/qmk_msys/mingw64/bin/../lib/gcc/avr/12.2.0/../../../../avr/lib/avr5\libatmega32u4.a(eerd_byte.o)
                0x00005eb6                eeprom_read_byte
 .text.avr-libc
                0x00005ec6        0xc c:/qmk_msys/mingw64/bin/../lib/gcc/avr/12.2.0/../../../../avr/lib/avr5\libatmega32u4.a(eerd_word.o)
                0x00005ec6                eeprom_read_word
 .text.avr-libc
                0x00005ed2       0x20 c:/qmk_msys/mingw64/bin/../lib/gcc/avr/12.2.0/../../../../avr/lib/avr5\libatmega32u4.a(eeupd_block.o)
                0x00005ed2                eeprom_update_block
 .text.avr-libc
                0x00005ef2       0x24 c:/qmk_msys/mingw64/bin/../lib/gcc/avr/12.2.0/../../../../avr/lib/avr5\libatmega32u4.a(eeupd_byte.o)
                0x00005ef2                eeprom_update_byte
                0x00005ef4                eeprom_update_r18
 .text.avr-libc
                0x00005f16       0x18 c:/qmk_msys/mingw64/bin/../lib/gcc/avr/12.2.0/../../../../avr/lib/avr5\libatmega32u4.a(eeupd_dword.o)
                0x00005f16                eeprom_update_float
                0x00005f16                eeprom_update_dword
 .text.avr-libc
                0x00005f2e        0xc c:/qmk_msys/mingw64/bin/../lib/gcc/avr/12.2.0/../../../../avr/lib/avr5\libatmega32u4.a(eeupd_word.o)
                0x00005f2e                eeprom_update_word
                0x00005f3a                        . = ALIGN (0x2)
 *(.fini9)
 .fini9         0x00005f3a        0x0 c:/qmk_msys/mingw64/bin/../lib/gcc/avr/12.2.0/avr5\libgcc.a(_exit.o)
                0x00005f3a                _exit
                0x00005f3a                exit
 *(.fini9)
 *(.fini8)
 *(.fini8)
 *(.fini7)
 *(.fini7)
 *(.fini6)
 *(.fini6)
 *(.fini5)
 *(.fini5)
 *(.fini4)
 *(.fini4)
 *(.fini3)
 *(.fini3)
 *(.fini2)
 *(.fini2)
 *(.fini1)
 *(.fini1)
 *(.fini0)
 .fini0         0x00005f3a        0x4 c:/qmk_msys/mingw64/bin/../lib/gcc/avr/12.2.0/avr5\libgcc.a(_exit.o)
 *(.fini0)
 *(.hightext)
 *(.hightext*)
 *(.progmemx.*)
                0x00005f3e                        . = ALIGN (0x2)
 *(.jumptables)
 *(.jumptables*)
 .jumptables.gcc.process_action
                0x00005f3e       0x18 .build/obj_custom_parallel_65_via/quantum/action.o
 .jumptables.gcc.rgb_task_render
                0x00005f56       0x12 .build/obj_custom_parallel_65_via/quantum/rgb_matrix/rgb_matrix.o
 .jumptables.gcc.process_rgb
                0x00005f68       0x2a .build/obj_custom_parallel_65_via/quantum/process_keycode/process_rgb.o
 .jumptables.gcc.process_magic
                0x00005f92       0x44 .build/obj_custom_parallel_65_via/quantum/process_keycode/process_magic.o
 .jumptables.gcc.mousekey_on
                0x00005fd6       0x26 .build/obj_custom_parallel_65_via/quantum/mousekey.o
 .jumptables.gcc.process_space_cadet
                0x00005ffc        0xe .build/obj_custom_parallel_65_via/quantum/process_keycode/process_space_cadet.o
 .jumptables.gcc.raw_hid_receive
                0x0000600a       0x26 .build/obj_custom_parallel_65_via/quantum/via.o
 .jumptables.gcc.USB_Device_ProcessControlRequest
                0x00006030       0x14 .build/obj_custom_parallel_65_via/lib/lufa/LUFA/Drivers/USB/Core/DeviceStandardReq.o
                0x00006044                        _etext = .

.data           0x00800100      0x200 load address 0x00006044
                0x00800100                        PROVIDE (__data_start = .)
 *(.data)
 *(.data*)
 .data.g_led_config
                0x00800100      0x146 .build/obj_custom_parallel_65_via/.build/obj_custom_parallel_65_via/src/default_keyboard.o
                0x00800100                g_led_config
 .data.keyboard_report
                0x00800246        0x2 .build/obj_custom_parallel_65_via/quantum/action_util.o
                0x00800246                keyboard_report
 .data.rgb_task_state
                0x00800248        0x1 .build/obj_custom_parallel_65_via/quantum/rgb_matrix/rgb_matrix.o
 .data.rgb_effect_params
                0x00800249        0x3 .build/obj_custom_parallel_65_via/quantum/rgb_matrix/rgb_matrix.o
 .data.rgb_last_effect
                0x0080024c        0x1 .build/obj_custom_parallel_65_via/quantum/rgb_matrix/rgb_matrix.o
 .data.rgb_last_enable
                0x0080024d        0x1 .build/obj_custom_parallel_65_via/quantum/rgb_matrix/rgb_matrix.o
 .data.mk_wheel_time_to_max
                0x0080024e        0x1 .build/obj_custom_parallel_65_via/quantum/mousekey.o
                0x0080024e                mk_wheel_time_to_max
 .data.mk_wheel_max_speed
                0x0080024f        0x1 .build/obj_custom_parallel_65_via/quantum/mousekey.o
                0x0080024f                mk_wheel_max_speed
 .data.mk_wheel_interval
                0x00800250        0x1 .build/obj_custom_parallel_65_via/quantum/mousekey.o
                0x00800250                mk_wheel_interval
 .data.mk_wheel_delay
                0x00800251        0x1 .build/obj_custom_parallel_65_via/quantum/mousekey.o
                0x00800251                mk_wheel_delay
 .data.mk_time_to_max
                0x00800252        0x1 .build/obj_custom_parallel_65_via/quantum/mousekey.o
                0x00800252                mk_time_to_max
 .data.mk_max_speed
                0x00800253        0x1 .build/obj_custom_parallel_65_via/quantum/mousekey.o
                0x00800253                mk_max_speed
 .data.mk_interval
                0x00800254        0x1 .build/obj_custom_parallel_65_via/quantum/mousekey.o
                0x00800254                mk_interval
 .data.mk_delay
                0x00800255        0x1 .build/obj_custom_parallel_65_via/quantum/mousekey.o
                0x00800255                mk_delay
 .data.tri_layer_adjust_layer
                0x00800256        0x1 .build/obj_custom_parallel_65_via/quantum/tri_layer.o
 .data.tri_layer_upper_layer
                0x00800257        0x1 .build/obj_custom_parallel_65_via/quantum/tri_layer.o
 .data.tri_layer_lower_layer
                0x00800258        0x1 .build/obj_custom_parallel_65_via/quantum/tri_layer.o
 .data.lufa_driver
                0x00800259        0xa .build/obj_custom_parallel_65_via/lufa.o
                0x00800259                lufa_driver
 .data.keyboard_protocol
                0x00800263        0x1 .build/obj_custom_parallel_65_via/lufa.o
                0x00800263                keyboard_protocol
 *(.gnu.linkonce.d*)
 *(.rodata)
 .rodata        0x00800264        0x3 .build/obj_custom_parallel_65_via/quantum/rgb_matrix/rgb_matrix.o
 *(.rodata*)
 .rodata.CSWTCH.10
                0x00800267       0x36 .build/obj_custom_parallel_65_via/quantum/action.o
 .rodata.CSWTCH.3
                0x0080029d       0x36 .build/obj_custom_parallel_65_via/quantum/keymap_common.o
 .rodata.col_pins
                0x008002d3       0x10 .build/obj_custom_parallel_65_via/quantum/matrix.o
 .rodata.row_pins
                0x008002e3        0x5 .build/obj_custom_parallel_65_via/quantum/matrix.o
 .rodata.rgb_matrix_driver
                0x008002e8        0x8 .build/obj_custom_parallel_65_via/quantum/rgb_matrix/rgb_matrix_drivers.o
                0x008002e8                rgb_matrix_driver
 .rodata.CSWTCH.3
                0x008002f0        0x3 .build/obj_custom_parallel_65_via/usb_descriptor.o
 .rodata.CSWTCH.2
                0x008002f3        0x6 .build/obj_custom_parallel_65_via/usb_descriptor.o
 .rodata.CSWTCH.1
                0x008002f9        0x6 .build/obj_custom_parallel_65_via/usb_descriptor.o
 *(.gnu.linkonce.r*)
                0x00800300                        . = ALIGN (0x2)
 *fill*         0x008002ff        0x1 
                0x00800300                        _edata = .
                0x00800300                        PROVIDE (__data_end = .)

.bss            0x00800300      0x23b
                0x00800300                        PROVIDE (__bss_start = .)
 *(.bss)
 .bss           0x00800300        0x2 .build/obj_custom_parallel_65_via/platforms/avr/xprintf.o
                0x00800300                xfunc_out
 *(.bss*)
 .bss.last_led_status.0
                0x00800302        0x1 .build/obj_custom_parallel_65_via/quantum/led.o
 .bss.last_led_modification_time
                0x00800303        0x4 .build/obj_custom_parallel_65_via/quantum/led.o
 .bss.disable_action_cache
                0x00800307        0x1 .build/obj_custom_parallel_65_via/quantum/action.o
                0x00800307                disable_action_cache
 .bss.source_layers_cache
                0x00800308       0x1e .build/obj_custom_parallel_65_via/quantum/action_layer.o
                0x00800308                source_layers_cache
 .bss.layer_state
                0x00800326        0x1 .build/obj_custom_parallel_65_via/quantum/action_layer.o
                0x00800326                layer_state
 .bss.default_layer_state
                0x00800327        0x1 .build/obj_custom_parallel_65_via/quantum/action_layer.o
                0x00800327                default_layer_state
 .bss.waiting_buffer_tail
                0x00800328        0x1 .build/obj_custom_parallel_65_via/quantum/action_tapping.o
 .bss.waiting_buffer_head
                0x00800329        0x1 .build/obj_custom_parallel_65_via/quantum/action_tapping.o
 .bss.waiting_buffer
                0x0080032a       0x38 .build/obj_custom_parallel_65_via/quantum/action_tapping.o
 .bss.tapping_key
                0x00800362        0x7 .build/obj_custom_parallel_65_via/quantum/action_tapping.o
 .bss.last_report.0
                0x00800369        0x8 .build/obj_custom_parallel_65_via/quantum/action_util.o
 .bss.oneshot_layer_data
                0x00800371        0x1 .build/obj_custom_parallel_65_via/quantum/action_util.o
 .bss.oneshot_locked_mods
                0x00800372        0x1 .build/obj_custom_parallel_65_via/quantum/action_util.o
 .bss.oneshot_mods
                0x00800373        0x1 .build/obj_custom_parallel_65_via/quantum/action_util.o
 .bss.__compound_literal.0
                0x00800374        0x8 .build/obj_custom_parallel_65_via/quantum/action_util.o
 .bss.weak_mods
                0x0080037c        0x1 .build/obj_custom_parallel_65_via/quantum/action_util.o
 .bss.real_mods
                0x0080037d        0x1 .build/obj_custom_parallel_65_via/quantum/action_util.o
 .bss.last_tick.0
                0x0080037e        0x2 .build/obj_custom_parallel_65_via/quantum/keyboard.o
 .bss.matrix_previous.1
                0x00800380        0xa .build/obj_custom_parallel_65_via/quantum/keyboard.o
 .bss.last_matrix_modification_time
                0x0080038a        0x4 .build/obj_custom_parallel_65_via/quantum/keyboard.o
 .bss.last_input_modification_time
                0x0080038e        0x4 .build/obj_custom_parallel_65_via/quantum/keyboard.o
 .bss.debug_config
                0x00800392        0x1 .build/obj_custom_parallel_65_via/quantum/logging/debug.o
                0x00800392                debug_config
 .bss.debouncing_time
                0x00800393        0x2 .build/obj_custom_parallel_65_via/quantum/debounce/sym_defer_g.o
 .bss.debouncing
                0x00800395        0x1 .build/obj_custom_parallel_65_via/quantum/debounce/sym_defer_g.o
 .bss.dirty_rgb_matrix
                0x00800396        0x1 .build/obj_custom_parallel_65_via/quantum/rgb_matrix/rgb_matrix.o
 .bss.last_hit_buffer
                0x00800397       0x29 .build/obj_custom_parallel_65_via/quantum/rgb_matrix/rgb_matrix.o
 .bss.rgb_timer_buffer
                0x008003c0        0x4 .build/obj_custom_parallel_65_via/quantum/rgb_matrix/rgb_matrix.o
 .bss.suspend_state
                0x008003c4        0x1 .build/obj_custom_parallel_65_via/quantum/rgb_matrix/rgb_matrix.o
 .bss.ws2812_dirty
                0x008003c5        0x1 .build/obj_custom_parallel_65_via/quantum/rgb_matrix/rgb_matrix_drivers.o
                0x008003c5                ws2812_dirty
 .bss.grave_esc_was_shifted
                0x008003c6        0x1 .build/obj_custom_parallel_65_via/quantum/process_keycode/process_grave_esc.o
 .bss.last_timer_w
                0x008003c7        0x2 .build/obj_custom_parallel_65_via/quantum/mousekey.o
 .bss.last_timer_c
                0x008003c9        0x2 .build/obj_custom_parallel_65_via/quantum/mousekey.o
 .bss.mousekey_wheel_repeat
                0x008003cb        0x1 .build/obj_custom_parallel_65_via/quantum/mousekey.o
 .bss.mousekey_repeat
                0x008003cc        0x1 .build/obj_custom_parallel_65_via/quantum/mousekey.o
 .bss.mousekey_accel
                0x008003cd        0x1 .build/obj_custom_parallel_65_via/quantum/mousekey.o
 .bss.mouse_report
                0x008003ce        0x6 .build/obj_custom_parallel_65_via/quantum/mousekey.o
 .bss.sc_timer  0x008003d4        0x2 .build/obj_custom_parallel_65_via/quantum/process_keycode/process_space_cadet.o
 .bss.sc_last   0x008003d6        0x1 .build/obj_custom_parallel_65_via/quantum/process_keycode/process_space_cadet.o
 .bss.last_consumer_usage
                0x008003d7        0x2 .build/obj_custom_parallel_65_via/protocol/host.o
 .bss.last_system_usage
                0x008003d9        0x2 .build/obj_custom_parallel_65_via/protocol/host.o
 .bss.driver    0x008003db        0x2 .build/obj_custom_parallel_65_via/protocol/host.o
 .bss.usb_device_state
                0x008003dd        0x1 .build/obj_custom_parallel_65_via/protocol/usb_device_state.o
                0x008003dd                usb_device_state
 .bss.wdt_timeout
                0x008003de        0x1 .build/obj_custom_parallel_65_via/platforms/avr/suspend.o
 .bss.keyboard_report_sent
                0x008003df        0x8 .build/obj_custom_parallel_65_via/lufa.o
 .bss.keyboard_led_state
                0x008003e7        0x1 .build/obj_custom_parallel_65_via/lufa.o
 .bss.keyboard_idle
                0x008003e8        0x1 .build/obj_custom_parallel_65_via/lufa.o
                0x008003e8                keyboard_idle
 *(COMMON)
 COMMON         0x008003e9        0x2 .build/obj_custom_parallel_65_via/quantum/keycode_config.o
                0x008003e9                keymap_config
 COMMON         0x008003eb       0x14 .build/obj_custom_parallel_65_via/quantum/matrix_common.o
                0x008003eb                raw_matrix
                0x008003f5                matrix
 COMMON         0x008003ff       0x35 .build/obj_custom_parallel_65_via/quantum/rgb_matrix/rgb_matrix.o
                0x008003ff                rgb_matrix_config
                0x00800407                g_rgb_timer
                0x0080040b                g_last_hit_tracker
 COMMON         0x00800434       0xf6 .build/obj_custom_parallel_65_via/quantum/rgb_matrix/rgb_matrix_drivers.o
                0x00800434                rgb_matrix_ws2812_array
 COMMON         0x0080052a        0x4 .build/obj_custom_parallel_65_via/platforms/avr/timer.o
                0x0080052a                timer_count
 COMMON         0x0080052e        0x3 .build/obj_custom_parallel_65_via/lib/lufa/LUFA/Drivers/USB/Core/DeviceStandardReq.o
                0x0080052e                USB_Device_ConfigurationNumber
                0x0080052f                USB_Device_CurrentlySelfPowered
                0x00800530                USB_Device_RemoteWakeupEnabled
 COMMON         0x00800531        0xa .build/obj_custom_parallel_65_via/lib/lufa/LUFA/Drivers/USB/Core/USBTask.o
                0x00800531                USB_IsInitialized
                0x00800532                USB_DeviceState
                0x00800533                USB_ControlRequest
                0x0080053b                        PROVIDE (__bss_end = .)
                0x00006044                        __data_load_start = LOADADDR (.data)
                0x00006244                        __data_load_end = (__data_load_start + SIZEOF (.data))

.noinit         0x0080053b        0x4
                [!provide]                        PROVIDE (__noinit_start = .)
 *(.noinit .noinit.* .gnu.linkonce.n.*)
 .noinit        0x0080053b        0x4 .build/obj_custom_parallel_65_via/platforms/avr/bootloaders/dfu.o
                0x0080053b                reset_key
                [!provide]                        PROVIDE (__noinit_end = .)
                0x0080053f                        _end = .
                [!provide]                        PROVIDE (__heap_start = .)

.eeprom         0x00810000        0x0
 *(.eeprom*)
                0x00810000                        __eeprom_end = .

.fuse
 *(.fuse)
 *(.lfuse)
 *(.hfuse)
 *(.efuse)

.lock
 *(.lock*)

.signature
 *(.signature*)

.stab
 *(.stab)

.stabstr
 *(.stabstr)

.stab.excl
 *(.stab.excl)

.stab.exclstr
 *(.stab.exclstr)

.stab.index
 *(.stab.index)

.stab.indexstr
 *(.stab.indexstr)

.comment        0x00000000       0x12
 *(.comment)
 .comment       0x00000000       0x12 .build/obj_custom_parallel_65_via/.build/obj_custom_parallel_65_via/src/default_keyboard.o
                                 0x13 (size before relaxing)
 .comment       0x00000012       0x13 .build/obj_custom_parallel_65_via/quantum/keymap_introspection.o
 .comment       0x00000012       0x13 .build/obj_custom_parallel_65_via/quantum/quantum.o
 .comment       0x00000012       0x13 .build/obj_custom_parallel_65_via/quantum/led.o
 .comment       0x00000012       0x13 .build/obj_custom_parallel_65_via/quantum/action.o
 .comment       0x00000012       0x13 .build/obj_custom_parallel_65_via/quantum/action_layer.o
 .comment       0x00000012       0x13 .build/obj_custom_parallel_65_via/quantum/action_tapping.o
 .comment       0x00000012       0x13 .build/obj_custom_parallel_65_via/quantum/action_util.o
 .comment       0x00000012       0x13 .build/obj_custom_parallel_65_via/quantum/eeconfig.o
 .comment       0x00000012       0x13 .build/obj_custom_parallel_65_via/quantum/keyboard.o
 .comment       0x00000012       0x13 .build/obj_custom_parallel_65_via/quantum/keymap_common.o
 .comment       0x00000012       0x13 .build/obj_custom_parallel_65_via/quantum/keycode_config.o
 .comment       0x00000012       0x13 .build/obj_custom_parallel_65_via/quantum/logging/debug.o
 .comment       0x00000012       0x13 .build/obj_custom_parallel_65_via/quantum/logging/sendchar.o
 .comment       0x00000012       0x13 .build/obj_custom_parallel_65_via/quantum/matrix_common.o
 .comment       0x00000012       0x13 .build/obj_custom_parallel_65_via/quantum/matrix.o
 .comment       0x00000012       0x13 .build/obj_custom_parallel_65_via/quantum/debounce/sym_defer_g.o
 .comment       0x00000012       0x13 .build/obj_custom_parallel_65_via/quantum/main.o
 .comment       0x00000012       0x13 .build/obj_custom_parallel_65_via/platforms/avr/printf.o
 .comment       0x00000012       0x13 .build/obj_custom_parallel_65_via/quantum/color.o
 .comment       0x00000012       0x13 .build/obj_custom_parallel_65_via/quantum/rgb_matrix/rgb_matrix.o
 .comment       0x00000012       0x13 .build/obj_custom_parallel_65_via/quantum/rgb_matrix/rgb_matrix_drivers.o
 .comment       0x00000012       0x13 .build/obj_custom_parallel_65_via/quantum/process_keycode/process_rgb.o
 .comment       0x00000012       0x13 .build/obj_custom_parallel_65_via/quantum/led_tables.o
 .comment       0x00000012       0x13 .build/obj_custom_parallel_65_via/ws2812_bitbang.o
 .comment       0x00000012       0x13 .build/obj_custom_parallel_65_via/quantum/bootmagic/bootmagic.o
 .comment       0x00000012       0x13 .build/obj_custom_parallel_65_via/quantum/dynamic_keymap.o
 .comment       0x00000012       0x13 .build/obj_custom_parallel_65_via/quantum/process_keycode/process_grave_esc.o
 .comment       0x00000012       0x13 .build/obj_custom_parallel_65_via/quantum/process_keycode/process_magic.o
 .comment       0x00000012       0x13 .build/obj_custom_parallel_65_via/quantum/mousekey.o
 .comment       0x00000012       0x13 .build/obj_custom_parallel_65_via/quantum/send_string/send_string.o
 .comment       0x00000012       0x13 .build/obj_custom_parallel_65_via/quantum/process_keycode/process_space_cadet.o
 .comment       0x00000012       0x13 .build/obj_custom_parallel_65_via/quantum/process_keycode/process_tri_layer.o
 .comment       0x00000012       0x13 .build/obj_custom_parallel_65_via/quantum/tri_layer.o
 .comment       0x00000012       0x13 .build/obj_custom_parallel_65_via/quantum/via.o
 .comment       0x00000012       0x13 .build/obj_custom_parallel_65_via/protocol/host.o
 .comment       0x00000012       0x13 .build/obj_custom_parallel_65_via/protocol/report.o
 .comment       0x00000012       0x13 .build/obj_custom_parallel_65_via/protocol/usb_device_state.o
 .comment       0x00000012       0x13 .build/obj_custom_parallel_65_via/platforms/suspend.o
 .comment       0x00000012       0x13 .build/obj_custom_parallel_65_via/platforms/avr/platform.o
 .comment       0x00000012       0x13 .build/obj_custom_parallel_65_via/platforms/avr/suspend.o
 .comment       0x00000012       0x13 .build/obj_custom_parallel_65_via/platforms/avr/timer.o
 .comment       0x00000012       0x13 .build/obj_custom_parallel_65_via/platforms/avr/bootloaders/dfu.o
 .comment       0x00000012       0x13 .build/obj_custom_parallel_65_via/lufa.o
 .comment       0x00000012       0x13 .build/obj_custom_parallel_65_via/usb_descriptor.o
 .comment       0x00000012       0x13 .build/obj_custom_parallel_65_via/lib/lufa/LUFA/Drivers/USB/Core/AVR8/Device_AVR8.o
 .comment       0x00000012       0x13 .build/obj_custom_parallel_65_via/lib/lufa/LUFA/Drivers/USB/Core/AVR8/EndpointStream_AVR8.o
 .comment       0x00000012       0x13 .build/obj_custom_parallel_65_via/lib/lufa/LUFA/Drivers/USB/Core/AVR8/Endpoint_AVR8.o
 .comment       0x00000012       0x13 .build/obj_custom_parallel_65_via/lib/lufa/LUFA/Drivers/USB/Core/AVR8/USBController_AVR8.o
 .comment       0x00000012       0x13 .build/obj_custom_parallel_65_via/lib/lufa/LUFA/Drivers/USB/Core/AVR8/USBInterrupt_AVR8.o
 .comment       0x00000012       0x13 .build/obj_custom_parallel_65_via/lib/lufa/LUFA/Drivers/USB/Core/DeviceStandardReq.o
 .comment       0x00000012       0x13 .build/obj_custom_parallel_65_via/lib/lufa/LUFA/Drivers/USB/Core/Events.o
 .comment       0x00000012       0x13 .build/obj_custom_parallel_65_via/lib/lufa/LUFA/Drivers/USB/Core/USBTask.o

.note.gnu.avr.deviceinfo
                0x00000000       0x40
 .note.gnu.avr.deviceinfo
                0x00000000       0x40 c:/qmk_msys/mingw64/bin/../lib/gcc/avr/12.2.0/../../../../avr/lib/avr5/crtatmega32u4.o

.gnu.build.attributes
 *(.gnu.build.attributes .gnu.build.attributes.*)

.note.gnu.build-id
 *(.note.gnu.build-id)

.debug
 *(.debug)

.line
 *(.line)

.debug_srcinfo
 *(.debug_srcinfo)

.debug_sfnames
 *(.debug_sfnames)

.debug_aranges  0x00000000     0x1600
 *(.debug_aranges)
 .debug_aranges
                0x00000000       0x18 .build/obj_custom_parallel_65_via/.build/obj_custom_parallel_65_via/src/default_keyboard.o
 .debug_aranges
                0x00000018       0x38 .build/obj_custom_parallel_65_via/quantum/keymap_introspection.o
 .debug_aranges
                0x00000050      0x100 .build/obj_custom_parallel_65_via/quantum/quantum.o
 .debug_aranges
                0x00000150       0x68 .build/obj_custom_parallel_65_via/quantum/led.o
 .debug_aranges
                0x000001b8       0xe0 .build/obj_custom_parallel_65_via/quantum/action.o
 .debug_aranges
                0x00000298      0x110 .build/obj_custom_parallel_65_via/quantum/action_layer.o
 .debug_aranges
                0x000003a8       0x48 .build/obj_custom_parallel_65_via/quantum/action_tapping.o
 .debug_aranges
                0x000003f0      0x178 .build/obj_custom_parallel_65_via/quantum/action_util.o
 .debug_aranges
                0x00000568       0xd8 .build/obj_custom_parallel_65_via/quantum/eeconfig.o
 .debug_aranges
                0x00000640      0x110 .build/obj_custom_parallel_65_via/quantum/keyboard.o
 .debug_aranges
                0x00000750       0x30 .build/obj_custom_parallel_65_via/quantum/keymap_common.o
 .debug_aranges
                0x00000780       0x28 .build/obj_custom_parallel_65_via/quantum/keycode_config.o
 .debug_aranges
                0x000007a8       0x18 .build/obj_custom_parallel_65_via/quantum/logging/debug.o
 .debug_aranges
                0x000007c0       0x20 .build/obj_custom_parallel_65_via/quantum/logging/sendchar.o
 .debug_aranges
                0x000007e0       0xa0 .build/obj_custom_parallel_65_via/quantum/matrix_common.o
 .debug_aranges
                0x00000880       0x40 .build/obj_custom_parallel_65_via/quantum/matrix.o
 .debug_aranges
                0x000008c0       0x30 .build/obj_custom_parallel_65_via/quantum/debounce/sym_defer_g.o
 .debug_aranges
                0x000008f0       0x28 .build/obj_custom_parallel_65_via/quantum/main.o
 .debug_aranges
                0x00000918       0x20 .build/obj_custom_parallel_65_via/platforms/avr/printf.o
 .debug_aranges
                0x00000938       0x30 .build/obj_custom_parallel_65_via/quantum/color.o
 .debug_aranges
                0x00000968      0x380 .build/obj_custom_parallel_65_via/quantum/rgb_matrix/rgb_matrix.o
 .debug_aranges
                0x00000ce8       0x38 .build/obj_custom_parallel_65_via/quantum/rgb_matrix/rgb_matrix_drivers.o
 .debug_aranges
                0x00000d20       0x28 .build/obj_custom_parallel_65_via/quantum/process_keycode/process_rgb.o
 .debug_aranges
                0x00000d48       0x18 .build/obj_custom_parallel_65_via/quantum/led_tables.o
 .debug_aranges
                0x00000d60       0x28 .build/obj_custom_parallel_65_via/ws2812_bitbang.o
 .debug_aranges
                0x00000d88       0x38 .build/obj_custom_parallel_65_via/quantum/bootmagic/bootmagic.o
 .debug_aranges
                0x00000dc0       0x88 .build/obj_custom_parallel_65_via/quantum/dynamic_keymap.o
 .debug_aranges
                0x00000e48       0x20 .build/obj_custom_parallel_65_via/quantum/process_keycode/process_grave_esc.o
 .debug_aranges
                0x00000e68       0x20 .build/obj_custom_parallel_65_via/quantum/process_keycode/process_magic.o
 .debug_aranges
                0x00000e88       0x68 .build/obj_custom_parallel_65_via/quantum/mousekey.o
 .debug_aranges
                0x00000ef0       0x70 .build/obj_custom_parallel_65_via/quantum/send_string/send_string.o
 .debug_aranges
                0x00000f60       0x30 .build/obj_custom_parallel_65_via/quantum/process_keycode/process_space_cadet.o
 .debug_aranges
                0x00000f90       0x20 .build/obj_custom_parallel_65_via/quantum/process_keycode/process_tri_layer.o
 .debug_aranges
                0x00000fb0       0x50 .build/obj_custom_parallel_65_via/quantum/tri_layer.o
 .debug_aranges
                0x00001000       0xa8 .build/obj_custom_parallel_65_via/quantum/via.o
 .debug_aranges
                0x000010a8       0x88 .build/obj_custom_parallel_65_via/protocol/host.o
 .debug_aranges
                0x00001130       0x60 .build/obj_custom_parallel_65_via/protocol/report.o
 .debug_aranges
                0x00001190       0x50 .build/obj_custom_parallel_65_via/protocol/usb_device_state.o
 .debug_aranges
                0x000011e0       0x50 .build/obj_custom_parallel_65_via/platforms/suspend.o
 .debug_aranges
                0x00001230       0x20 .build/obj_custom_parallel_65_via/platforms/avr/platform.o
 .debug_aranges
                0x00001250       0x30 .build/obj_custom_parallel_65_via/platforms/avr/suspend.o
 .debug_aranges
                0x00001280       0x50 .build/obj_custom_parallel_65_via/platforms/avr/timer.o
 .debug_aranges
                0x000012d0       0x30 .build/obj_custom_parallel_65_via/platforms/avr/bootloaders/dfu.o
 .debug_aranges
                0x00001300       0xe0 .build/obj_custom_parallel_65_via/lufa.o
 .debug_aranges
                0x000013e0       0x20 .build/obj_custom_parallel_65_via/usb_descriptor.o
 .debug_aranges
                0x00001400       0x20 .build/obj_custom_parallel_65_via/lib/lufa/LUFA/Drivers/USB/Core/AVR8/Device_AVR8.o
 .debug_aranges
                0x00001420       0xc8 .build/obj_custom_parallel_65_via/lib/lufa/LUFA/Drivers/USB/Core/AVR8/EndpointStream_AVR8.o
 .debug_aranges
                0x000014e8       0x40 .build/obj_custom_parallel_65_via/lib/lufa/LUFA/Drivers/USB/Core/AVR8/Endpoint_AVR8.o
 .debug_aranges
                0x00001528       0x30 .build/obj_custom_parallel_65_via/lib/lufa/LUFA/Drivers/USB/Core/AVR8/USBController_AVR8.o
 .debug_aranges
                0x00001558       0x38 .build/obj_custom_parallel_65_via/lib/lufa/LUFA/Drivers/USB/Core/AVR8/USBInterrupt_AVR8.o
 .debug_aranges
                0x00001590       0x20 .build/obj_custom_parallel_65_via/lib/lufa/LUFA/Drivers/USB/Core/DeviceStandardReq.o
 .debug_aranges
                0x000015b0       0x30 .build/obj_custom_parallel_65_via/lib/lufa/LUFA/Drivers/USB/Core/Events.o
 .debug_aranges
                0x000015e0       0x20 .build/obj_custom_parallel_65_via/lib/lufa/LUFA/Drivers/USB/Core/USBTask.o

.debug_pubnames
 *(.debug_pubnames)

.debug_info     0x00000000    0x3b922
 *(.debug_info .gnu.linkonce.wi.*)
 .debug_info    0x00000000      0x9f4 c:/qmk_msys/mingw64/bin/../lib/gcc/avr/12.2.0/../../../../avr/lib/avr5/crtatmega32u4.o
 .debug_info    0x000009f4      0x13f .build/obj_custom_parallel_65_via/.build/obj_custom_parallel_65_via/src/default_keyboard.o
 .debug_info    0x00000b33     0x26bc .build/obj_custom_parallel_65_via/quantum/keymap_introspection.o
 .debug_info    0x000031ef     0x36ad .build/obj_custom_parallel_65_via/quantum/quantum.o
 .debug_info    0x0000689c      0x43e .build/obj_custom_parallel_65_via/quantum/led.o
 .debug_info    0x00006cda     0x4352 .build/obj_custom_parallel_65_via/quantum/action.o
 .debug_info    0x0000b02c      0xd7e .build/obj_custom_parallel_65_via/quantum/action_layer.o
 .debug_info    0x0000bdaa     0x2d37 .build/obj_custom_parallel_65_via/quantum/action_tapping.o
 .debug_info    0x0000eae1      0xcb5 .build/obj_custom_parallel_65_via/quantum/action_util.o
 .debug_info    0x0000f796      0x97a .build/obj_custom_parallel_65_via/quantum/eeconfig.o
 .debug_info    0x00010110      0xd6c .build/obj_custom_parallel_65_via/quantum/keyboard.o
 .debug_info    0x00010e7c     0x2d14 .build/obj_custom_parallel_65_via/quantum/keymap_common.o
 .debug_info    0x00013b90     0x2551 .build/obj_custom_parallel_65_via/quantum/keycode_config.o
 .debug_info    0x000160e1      0x117 .build/obj_custom_parallel_65_via/quantum/logging/debug.o
 .debug_info    0x000161f8       0xa8 .build/obj_custom_parallel_65_via/quantum/logging/sendchar.o
 .debug_info    0x000162a0      0x54c .build/obj_custom_parallel_65_via/quantum/matrix_common.o
 .debug_info    0x000167ec      0x6fa .build/obj_custom_parallel_65_via/quantum/matrix.o
 .debug_info    0x00016ee6      0x2e6 .build/obj_custom_parallel_65_via/quantum/debounce/sym_defer_g.o
 .debug_info    0x000171cc      0x19f .build/obj_custom_parallel_65_via/quantum/main.o
 .debug_info    0x0001736b       0xe7 .build/obj_custom_parallel_65_via/platforms/avr/printf.o
 .debug_info    0x00017452      0x2f0 .build/obj_custom_parallel_65_via/quantum/color.o
 .debug_info    0x00017742     0x3af0 .build/obj_custom_parallel_65_via/quantum/rgb_matrix/rgb_matrix.o
 .debug_info    0x0001b232      0x31e .build/obj_custom_parallel_65_via/quantum/rgb_matrix/rgb_matrix_drivers.o
 .debug_info    0x0001b550     0x271b .build/obj_custom_parallel_65_via/quantum/process_keycode/process_rgb.o
 .debug_info    0x0001dc6b       0xac .build/obj_custom_parallel_65_via/quantum/led_tables.o
 .debug_info    0x0001dd17      0x301 .build/obj_custom_parallel_65_via/ws2812_bitbang.o
 .debug_info    0x0001e018      0x2a4 .build/obj_custom_parallel_65_via/quantum/bootmagic/bootmagic.o
 .debug_info    0x0001e2bc     0x2bcf .build/obj_custom_parallel_65_via/quantum/dynamic_keymap.o
 .debug_info    0x00020e8b     0x26a1 .build/obj_custom_parallel_65_via/quantum/process_keycode/process_grave_esc.o
 .debug_info    0x0002352c     0x26e0 .build/obj_custom_parallel_65_via/quantum/process_keycode/process_magic.o
 .debug_info    0x00025c0c     0x2947 .build/obj_custom_parallel_65_via/quantum/mousekey.o
 .debug_info    0x00028553     0x3037 .build/obj_custom_parallel_65_via/quantum/send_string/send_string.o
 .debug_info    0x0002b58a     0x270a .build/obj_custom_parallel_65_via/quantum/process_keycode/process_space_cadet.o
 .debug_info    0x0002dc94     0x260e .build/obj_custom_parallel_65_via/quantum/process_keycode/process_tri_layer.o
 .debug_info    0x000302a2      0x1b5 .build/obj_custom_parallel_65_via/quantum/tri_layer.o
 .debug_info    0x00030457     0x13d9 .build/obj_custom_parallel_65_via/quantum/via.o
 .debug_info    0x00031830      0x805 .build/obj_custom_parallel_65_via/protocol/host.o
 .debug_info    0x00032035     0x2703 .build/obj_custom_parallel_65_via/protocol/report.o
 .debug_info    0x00034738      0x2ad .build/obj_custom_parallel_65_via/protocol/usb_device_state.o
 .debug_info    0x000349e5      0x19b .build/obj_custom_parallel_65_via/platforms/suspend.o
 .debug_info    0x00034b80       0xa9 .build/obj_custom_parallel_65_via/platforms/avr/platform.o
 .debug_info    0x00034c29      0x22e .build/obj_custom_parallel_65_via/platforms/avr/suspend.o
 .debug_info    0x00034e57      0x443 .build/obj_custom_parallel_65_via/platforms/avr/timer.o
 .debug_info    0x0003529a      0x238 .build/obj_custom_parallel_65_via/platforms/avr/bootloaders/dfu.o
 .debug_info    0x000354d2     0x1681 .build/obj_custom_parallel_65_via/lufa.o
 .debug_info    0x00036b53      0x8ae .build/obj_custom_parallel_65_via/usb_descriptor.o
 .debug_info    0x00037401       0xfc .build/obj_custom_parallel_65_via/lib/lufa/LUFA/Drivers/USB/Core/AVR8/Device_AVR8.o
 .debug_info    0x000374fd     0x1d82 .build/obj_custom_parallel_65_via/lib/lufa/LUFA/Drivers/USB/Core/AVR8/EndpointStream_AVR8.o
 .debug_info    0x0003927f      0x727 .build/obj_custom_parallel_65_via/lib/lufa/LUFA/Drivers/USB/Core/AVR8/Endpoint_AVR8.o
 .debug_info    0x000399a6      0x5aa .build/obj_custom_parallel_65_via/lib/lufa/LUFA/Drivers/USB/Core/AVR8/USBController_AVR8.o
 .debug_info    0x00039f50      0x9b2 .build/obj_custom_parallel_65_via/lib/lufa/LUFA/Drivers/USB/Core/AVR8/USBInterrupt_AVR8.o
 .debug_info    0x0003a902      0xc65 .build/obj_custom_parallel_65_via/lib/lufa/LUFA/Drivers/USB/Core/DeviceStandardReq.o
 .debug_info    0x0003b567       0xf0 .build/obj_custom_parallel_65_via/lib/lufa/LUFA/Drivers/USB/Core/Events.o
 .debug_info    0x0003b657      0x2cb .build/obj_custom_parallel_65_via/lib/lufa/LUFA/Drivers/USB/Core/USBTask.o

.debug_abbrev   0x00000000     0x7b09
 *(.debug_abbrev)
 .debug_abbrev  0x00000000      0x96a c:/qmk_msys/mingw64/bin/../lib/gcc/avr/12.2.0/../../../../avr/lib/avr5/crtatmega32u4.o
 .debug_abbrev  0x0000096a       0xa9 .build/obj_custom_parallel_65_via/.build/obj_custom_parallel_65_via/src/default_keyboard.o
 .debug_abbrev  0x00000a13      0x174 .build/obj_custom_parallel_65_via/quantum/keymap_introspection.o
 .debug_abbrev  0x00000b87      0x443 .build/obj_custom_parallel_65_via/quantum/quantum.o
 .debug_abbrev  0x00000fca      0x203 .build/obj_custom_parallel_65_via/quantum/led.o
 .debug_abbrev  0x000011cd      0x4d2 .build/obj_custom_parallel_65_via/quantum/action.o
 .debug_abbrev  0x0000169f      0x389 .build/obj_custom_parallel_65_via/quantum/action_layer.o
 .debug_abbrev  0x00001a28      0x359 .build/obj_custom_parallel_65_via/quantum/action_tapping.o
 .debug_abbrev  0x00001d81      0x39e .build/obj_custom_parallel_65_via/quantum/action_util.o
 .debug_abbrev  0x0000211f      0x1f6 .build/obj_custom_parallel_65_via/quantum/eeconfig.o
 .debug_abbrev  0x00002315      0x420 .build/obj_custom_parallel_65_via/quantum/keyboard.o
 .debug_abbrev  0x00002735      0x231 .build/obj_custom_parallel_65_via/quantum/keymap_common.o
 .debug_abbrev  0x00002966      0x131 .build/obj_custom_parallel_65_via/quantum/keycode_config.o
 .debug_abbrev  0x00002a97       0xa2 .build/obj_custom_parallel_65_via/quantum/logging/debug.o
 .debug_abbrev  0x00002b39       0x6b .build/obj_custom_parallel_65_via/quantum/logging/sendchar.o
 .debug_abbrev  0x00002ba4      0x298 .build/obj_custom_parallel_65_via/quantum/matrix_common.o
 .debug_abbrev  0x00002e3c      0x2ec .build/obj_custom_parallel_65_via/quantum/matrix.o
 .debug_abbrev  0x00003128      0x1f6 .build/obj_custom_parallel_65_via/quantum/debounce/sym_defer_g.o
 .debug_abbrev  0x0000331e       0x8d .build/obj_custom_parallel_65_via/quantum/main.o
 .debug_abbrev  0x000033ab       0x9d .build/obj_custom_parallel_65_via/platforms/avr/printf.o
 .debug_abbrev  0x00003448      0x17a .build/obj_custom_parallel_65_via/quantum/color.o
 .debug_abbrev  0x000035c2      0x78e .build/obj_custom_parallel_65_via/quantum/rgb_matrix/rgb_matrix.o
 .debug_abbrev  0x00003d50      0x1c3 .build/obj_custom_parallel_65_via/quantum/rgb_matrix/rgb_matrix_drivers.o
 .debug_abbrev  0x00003f13      0x18c .build/obj_custom_parallel_65_via/quantum/process_keycode/process_rgb.o
 .debug_abbrev  0x0000409f       0x77 .build/obj_custom_parallel_65_via/quantum/led_tables.o
 .debug_abbrev  0x00004116      0x1d0 .build/obj_custom_parallel_65_via/ws2812_bitbang.o
 .debug_abbrev  0x000042e6      0x1c9 .build/obj_custom_parallel_65_via/quantum/bootmagic/bootmagic.o
 .debug_abbrev  0x000044af      0x24d .build/obj_custom_parallel_65_via/quantum/dynamic_keymap.o
 .debug_abbrev  0x000046fc      0x1c2 .build/obj_custom_parallel_65_via/quantum/process_keycode/process_grave_esc.o
 .debug_abbrev  0x000048be      0x16c .build/obj_custom_parallel_65_via/quantum/process_keycode/process_magic.o
 .debug_abbrev  0x00004a2a      0x30a .build/obj_custom_parallel_65_via/quantum/mousekey.o
 .debug_abbrev  0x00004d34      0x2e5 .build/obj_custom_parallel_65_via/quantum/send_string/send_string.o
 .debug_abbrev  0x00005019      0x1c2 .build/obj_custom_parallel_65_via/quantum/process_keycode/process_space_cadet.o
 .debug_abbrev  0x000051db      0x13a .build/obj_custom_parallel_65_via/quantum/process_keycode/process_tri_layer.o
 .debug_abbrev  0x00005315       0xaf .build/obj_custom_parallel_65_via/quantum/tri_layer.o
 .debug_abbrev  0x000053c4      0x3bb .build/obj_custom_parallel_65_via/quantum/via.o
 .debug_abbrev  0x0000577f      0x297 .build/obj_custom_parallel_65_via/protocol/host.o
 .debug_abbrev  0x00005a16      0x274 .build/obj_custom_parallel_65_via/protocol/report.o
 .debug_abbrev  0x00005c8a      0x155 .build/obj_custom_parallel_65_via/protocol/usb_device_state.o
 .debug_abbrev  0x00005ddf      0x112 .build/obj_custom_parallel_65_via/platforms/suspend.o
 .debug_abbrev  0x00005ef1       0x7e .build/obj_custom_parallel_65_via/platforms/avr/platform.o
 .debug_abbrev  0x00005f6f      0x172 .build/obj_custom_parallel_65_via/platforms/avr/suspend.o
 .debug_abbrev  0x000060e1      0x1ba .build/obj_custom_parallel_65_via/platforms/avr/timer.o
 .debug_abbrev  0x0000629b      0x181 .build/obj_custom_parallel_65_via/platforms/avr/bootloaders/dfu.o
 .debug_abbrev  0x0000641c      0x60d .build/obj_custom_parallel_65_via/lufa.o
 .debug_abbrev  0x00006a29      0x178 .build/obj_custom_parallel_65_via/usb_descriptor.o
 .debug_abbrev  0x00006ba1       0x91 .build/obj_custom_parallel_65_via/lib/lufa/LUFA/Drivers/USB/Core/AVR8/Device_AVR8.o
 .debug_abbrev  0x00006c32      0x252 .build/obj_custom_parallel_65_via/lib/lufa/LUFA/Drivers/USB/Core/AVR8/EndpointStream_AVR8.o
 .debug_abbrev  0x00006e84      0x29d .build/obj_custom_parallel_65_via/lib/lufa/LUFA/Drivers/USB/Core/AVR8/Endpoint_AVR8.o
 .debug_abbrev  0x00007121      0x1c4 .build/obj_custom_parallel_65_via/lib/lufa/LUFA/Drivers/USB/Core/AVR8/USBController_AVR8.o
 .debug_abbrev  0x000072e5      0x26e .build/obj_custom_parallel_65_via/lib/lufa/LUFA/Drivers/USB/Core/AVR8/USBInterrupt_AVR8.o
 .debug_abbrev  0x00007553      0x384 .build/obj_custom_parallel_65_via/lib/lufa/LUFA/Drivers/USB/Core/DeviceStandardReq.o
 .debug_abbrev  0x000078d7       0x89 .build/obj_custom_parallel_65_via/lib/lufa/LUFA/Drivers/USB/Core/Events.o
 .debug_abbrev  0x00007960      0x1a9 .build/obj_custom_parallel_65_via/lib/lufa/LUFA/Drivers/USB/Core/USBTask.o

.debug_line     0x00000000    0x187c5
 *(.debug_line .debug_line.* .debug_line_end)
 .debug_line    0x00000000       0x1d c:/qmk_msys/mingw64/bin/../lib/gcc/avr/12.2.0/../../../../avr/lib/avr5/crtatmega32u4.o
 .debug_line    0x0000001d       0xbb .build/obj_custom_parallel_65_via/.build/obj_custom_parallel_65_via/src/default_keyboard.o
 .debug_line    0x000000d8      0x19b .build/obj_custom_parallel_65_via/quantum/keymap_introspection.o
 .debug_line    0x00000273      0xe1d .build/obj_custom_parallel_65_via/quantum/quantum.o
 .debug_line    0x00001090      0x2d4 .build/obj_custom_parallel_65_via/quantum/led.o
 .debug_line    0x00001364     0x1ac4 .build/obj_custom_parallel_65_via/quantum/action.o
 .debug_line    0x00002e28      0xaec .build/obj_custom_parallel_65_via/quantum/action_layer.o
 .debug_line    0x00003914      0xcbc .build/obj_custom_parallel_65_via/quantum/action_tapping.o
 .debug_line    0x000045d0      0xb58 .build/obj_custom_parallel_65_via/quantum/action_util.o
 .debug_line    0x00005128      0x5ea .build/obj_custom_parallel_65_via/quantum/eeconfig.o
 .debug_line    0x00005712      0x99e .build/obj_custom_parallel_65_via/quantum/keyboard.o
 .debug_line    0x000060b0      0x51c .build/obj_custom_parallel_65_via/quantum/keymap_common.o
 .debug_line    0x000065cc      0x4ab .build/obj_custom_parallel_65_via/quantum/keycode_config.o
 .debug_line    0x00006a77       0x6c .build/obj_custom_parallel_65_via/quantum/logging/debug.o
 .debug_line    0x00006ae3       0x8d .build/obj_custom_parallel_65_via/quantum/logging/sendchar.o
 .debug_line    0x00006b70      0x460 .build/obj_custom_parallel_65_via/quantum/matrix_common.o
 .debug_line    0x00006fd0      0x5c6 .build/obj_custom_parallel_65_via/quantum/matrix.o
 .debug_line    0x00007596      0x281 .build/obj_custom_parallel_65_via/quantum/debounce/sym_defer_g.o
 .debug_line    0x00007817       0xe9 .build/obj_custom_parallel_65_via/quantum/main.o
 .debug_line    0x00007900       0xae .build/obj_custom_parallel_65_via/platforms/avr/printf.o
 .debug_line    0x000079ae      0x31d .build/obj_custom_parallel_65_via/quantum/color.o
 .debug_line    0x00007ccb     0x35b8 .build/obj_custom_parallel_65_via/quantum/rgb_matrix/rgb_matrix.o
 .debug_line    0x0000b283      0x23a .build/obj_custom_parallel_65_via/quantum/rgb_matrix/rgb_matrix_drivers.o
 .debug_line    0x0000b4bd      0x228 .build/obj_custom_parallel_65_via/quantum/process_keycode/process_rgb.o
 .debug_line    0x0000b6e5       0x6e .build/obj_custom_parallel_65_via/quantum/led_tables.o
 .debug_line    0x0000b753      0x216 .build/obj_custom_parallel_65_via/ws2812_bitbang.o
 .debug_line    0x0000b969      0x204 .build/obj_custom_parallel_65_via/quantum/bootmagic/bootmagic.o
 .debug_line    0x0000bb6d      0x9e7 .build/obj_custom_parallel_65_via/quantum/dynamic_keymap.o
 .debug_line    0x0000c554      0x216 .build/obj_custom_parallel_65_via/quantum/process_keycode/process_grave_esc.o
 .debug_line    0x0000c76a      0x46e .build/obj_custom_parallel_65_via/quantum/process_keycode/process_magic.o
 .debug_line    0x0000cbd8      0xdbb .build/obj_custom_parallel_65_via/quantum/mousekey.o
 .debug_line    0x0000d993      0xe26 .build/obj_custom_parallel_65_via/quantum/send_string/send_string.o
 .debug_line    0x0000e7b9      0x398 .build/obj_custom_parallel_65_via/quantum/process_keycode/process_space_cadet.o
 .debug_line    0x0000eb51      0x16d .build/obj_custom_parallel_65_via/quantum/process_keycode/process_tri_layer.o
 .debug_line    0x0000ecbe      0x196 .build/obj_custom_parallel_65_via/quantum/tri_layer.o
 .debug_line    0x0000ee54      0xc92 .build/obj_custom_parallel_65_via/quantum/via.o
 .debug_line    0x0000fae6      0x445 .build/obj_custom_parallel_65_via/protocol/host.o
 .debug_line    0x0000ff2b      0x50a .build/obj_custom_parallel_65_via/protocol/report.o
 .debug_line    0x00010435      0x1cd .build/obj_custom_parallel_65_via/protocol/usb_device_state.o
 .debug_line    0x00010602      0x19a .build/obj_custom_parallel_65_via/platforms/suspend.o
 .debug_line    0x0001079c       0xaf .build/obj_custom_parallel_65_via/platforms/avr/platform.o
 .debug_line    0x0001084b      0x279 .build/obj_custom_parallel_65_via/platforms/avr/suspend.o
 .debug_line    0x00010ac4      0x4a2 .build/obj_custom_parallel_65_via/platforms/avr/timer.o
 .debug_line    0x00010f66      0x25f .build/obj_custom_parallel_65_via/platforms/avr/bootloaders/dfu.o
 .debug_line    0x000111c5     0x10ab .build/obj_custom_parallel_65_via/lufa.o
 .debug_line    0x00012270      0x2ce .build/obj_custom_parallel_65_via/usb_descriptor.o
 .debug_line    0x0001253e      0x1aa .build/obj_custom_parallel_65_via/lib/lufa/LUFA/Drivers/USB/Core/AVR8/Device_AVR8.o
 .debug_line    0x000126e8     0x332f .build/obj_custom_parallel_65_via/lib/lufa/LUFA/Drivers/USB/Core/AVR8/EndpointStream_AVR8.o
 .debug_line    0x00015a17      0x9b6 .build/obj_custom_parallel_65_via/lib/lufa/LUFA/Drivers/USB/Core/AVR8/Endpoint_AVR8.o
 .debug_line    0x000163cd      0x655 .build/obj_custom_parallel_65_via/lib/lufa/LUFA/Drivers/USB/Core/AVR8/USBController_AVR8.o
 .debug_line    0x00016a22      0xcd4 .build/obj_custom_parallel_65_via/lib/lufa/LUFA/Drivers/USB/Core/AVR8/USBInterrupt_AVR8.o
 .debug_line    0x000176f6      0xda3 .build/obj_custom_parallel_65_via/lib/lufa/LUFA/Drivers/USB/Core/DeviceStandardReq.o
 .debug_line    0x00018499       0xe1 .build/obj_custom_parallel_65_via/lib/lufa/LUFA/Drivers/USB/Core/Events.o
 .debug_line    0x0001857a      0x24b .build/obj_custom_parallel_65_via/lib/lufa/LUFA/Drivers/USB/Core/USBTask.o

.debug_frame    0x00000000     0x313c
 *(.debug_frame)
 .debug_frame   0x00000000       0x54 .build/obj_custom_parallel_65_via/quantum/keymap_introspection.o
 .debug_frame   0x00000054      0x2cc .build/obj_custom_parallel_65_via/quantum/quantum.o
 .debug_frame   0x00000320       0xd8 .build/obj_custom_parallel_65_via/quantum/led.o
 .debug_frame   0x000003f8      0x208 .build/obj_custom_parallel_65_via/quantum/action.o
 .debug_frame   0x00000600      0x234 .build/obj_custom_parallel_65_via/quantum/action_layer.o
 .debug_frame   0x00000834       0xd0 .build/obj_custom_parallel_65_via/quantum/action_tapping.o
 .debug_frame   0x00000904      0x2e8 .build/obj_custom_parallel_65_via/quantum/action_util.o
 .debug_frame   0x00000bec      0x19c .build/obj_custom_parallel_65_via/quantum/eeconfig.o
 .debug_frame   0x00000d88      0x2a4 .build/obj_custom_parallel_65_via/quantum/keyboard.o
 .debug_frame   0x0000102c       0x54 .build/obj_custom_parallel_65_via/quantum/keymap_common.o
 .debug_frame   0x00001080       0x34 .build/obj_custom_parallel_65_via/quantum/keycode_config.o
 .debug_frame   0x000010b4       0x24 .build/obj_custom_parallel_65_via/quantum/logging/sendchar.o
 .debug_frame   0x000010d8      0x12c .build/obj_custom_parallel_65_via/quantum/matrix_common.o
 .debug_frame   0x00001204       0xa0 .build/obj_custom_parallel_65_via/quantum/matrix.o
 .debug_frame   0x000012a4       0x58 .build/obj_custom_parallel_65_via/quantum/debounce/sym_defer_g.o
 .debug_frame   0x000012fc       0x34 .build/obj_custom_parallel_65_via/quantum/main.o
 .debug_frame   0x00001330       0x24 .build/obj_custom_parallel_65_via/platforms/avr/printf.o
 .debug_frame   0x00001354       0x5c .build/obj_custom_parallel_65_via/quantum/color.o
 .debug_frame   0x000013b0      0x8f0 .build/obj_custom_parallel_65_via/quantum/rgb_matrix/rgb_matrix.o
 .debug_frame   0x00001ca0       0x7c .build/obj_custom_parallel_65_via/quantum/rgb_matrix/rgb_matrix_drivers.o
 .debug_frame   0x00001d1c       0x44 .build/obj_custom_parallel_65_via/quantum/process_keycode/process_rgb.o
 .debug_frame   0x00001d60       0x34 .build/obj_custom_parallel_65_via/ws2812_bitbang.o
 .debug_frame   0x00001d94       0x54 .build/obj_custom_parallel_65_via/quantum/bootmagic/bootmagic.o
 .debug_frame   0x00001de8      0x1cc .build/obj_custom_parallel_65_via/quantum/dynamic_keymap.o
 .debug_frame   0x00001fb4       0x30 .build/obj_custom_parallel_65_via/quantum/process_keycode/process_grave_esc.o
 .debug_frame   0x00001fe4       0x30 .build/obj_custom_parallel_65_via/quantum/process_keycode/process_magic.o
 .debug_frame   0x00002014       0xcc .build/obj_custom_parallel_65_via/quantum/mousekey.o
 .debug_frame   0x000020e0      0x130 .build/obj_custom_parallel_65_via/quantum/send_string/send_string.o
 .debug_frame   0x00002210       0x60 .build/obj_custom_parallel_65_via/quantum/process_keycode/process_space_cadet.o
 .debug_frame   0x00002270       0x30 .build/obj_custom_parallel_65_via/quantum/process_keycode/process_tri_layer.o
 .debug_frame   0x000022a0       0x84 .build/obj_custom_parallel_65_via/quantum/tri_layer.o
 .debug_frame   0x00002324      0x18c .build/obj_custom_parallel_65_via/quantum/via.o
 .debug_frame   0x000024b0      0x104 .build/obj_custom_parallel_65_via/protocol/host.o
 .debug_frame   0x000025b4       0xa4 .build/obj_custom_parallel_65_via/protocol/report.o
 .debug_frame   0x00002658       0x84 .build/obj_custom_parallel_65_via/protocol/usb_device_state.o
 .debug_frame   0x000026dc       0x8c .build/obj_custom_parallel_65_via/platforms/suspend.o
 .debug_frame   0x00002768       0x24 .build/obj_custom_parallel_65_via/platforms/avr/platform.o
 .debug_frame   0x0000278c       0x54 .build/obj_custom_parallel_65_via/platforms/avr/suspend.o
 .debug_frame   0x000027e0       0xa8 .build/obj_custom_parallel_65_via/platforms/avr/timer.o
 .debug_frame   0x00002888       0x44 .build/obj_custom_parallel_65_via/platforms/avr/bootloaders/dfu.o
 .debug_frame   0x000028cc      0x1b8 .build/obj_custom_parallel_65_via/lufa.o
 .debug_frame   0x00002a84       0x24 .build/obj_custom_parallel_65_via/usb_descriptor.o
 .debug_frame   0x00002aa8       0x24 .build/obj_custom_parallel_65_via/lib/lufa/LUFA/Drivers/USB/Core/AVR8/Device_AVR8.o
 .debug_frame   0x00002acc      0x404 .build/obj_custom_parallel_65_via/lib/lufa/LUFA/Drivers/USB/Core/AVR8/EndpointStream_AVR8.o
 .debug_frame   0x00002ed0       0x78 .build/obj_custom_parallel_65_via/lib/lufa/LUFA/Drivers/USB/Core/AVR8/Endpoint_AVR8.o
 .debug_frame   0x00002f48       0x58 .build/obj_custom_parallel_65_via/lib/lufa/LUFA/Drivers/USB/Core/AVR8/USBController_AVR8.o
 .debug_frame   0x00002fa0       0xfc .build/obj_custom_parallel_65_via/lib/lufa/LUFA/Drivers/USB/Core/AVR8/USBInterrupt_AVR8.o
 .debug_frame   0x0000309c       0x30 .build/obj_custom_parallel_65_via/lib/lufa/LUFA/Drivers/USB/Core/DeviceStandardReq.o
 .debug_frame   0x000030cc       0x44 .build/obj_custom_parallel_65_via/lib/lufa/LUFA/Drivers/USB/Core/Events.o
 .debug_frame   0x00003110       0x2c .build/obj_custom_parallel_65_via/lib/lufa/LUFA/Drivers/USB/Core/USBTask.o

.debug_str      0x00000000     0xab24
 *(.debug_str)
 .debug_str     0x00000000      0x371 c:/qmk_msys/mingw64/bin/../lib/gcc/avr/12.2.0/../../../../avr/lib/avr5/crtatmega32u4.o
 .debug_str     0x00000371     0xa7b3 .build/obj_custom_parallel_65_via/.build/obj_custom_parallel_65_via/src/default_keyboard.o
                                0x267 (size before relaxing)
 .debug_str     0x0000ab24     0x4664 .build/obj_custom_parallel_65_via/quantum/keymap_introspection.o
 .debug_str     0x0000ab24     0x4c18 .build/obj_custom_parallel_65_via/quantum/quantum.o
 .debug_str     0x0000ab24      0x389 .build/obj_custom_parallel_65_via/quantum/led.o
 .debug_str     0x0000ab24     0x50d2 .build/obj_custom_parallel_65_via/quantum/action.o
 .debug_str     0x0000ab24      0x604 .build/obj_custom_parallel_65_via/quantum/action_layer.o
 .debug_str     0x0000ab24     0x46a9 .build/obj_custom_parallel_65_via/quantum/action_tapping.o
 .debug_str     0x0000ab24      0x7ca .build/obj_custom_parallel_65_via/quantum/action_util.o
 .debug_str     0x0000ab24      0x51e .build/obj_custom_parallel_65_via/quantum/eeconfig.o
 .debug_str     0x0000ab24      0x9e6 .build/obj_custom_parallel_65_via/quantum/keyboard.o
 .debug_str     0x0000ab24     0x4c06 .build/obj_custom_parallel_65_via/quantum/keymap_common.o
 .debug_str     0x0000ab24     0x43cd .build/obj_custom_parallel_65_via/quantum/keycode_config.o
 .debug_str     0x0000ab24      0x240 .build/obj_custom_parallel_65_via/quantum/logging/debug.o
 .debug_str     0x0000ab24      0x206 .build/obj_custom_parallel_65_via/quantum/logging/sendchar.o
 .debug_str     0x0000ab24      0x3e7 .build/obj_custom_parallel_65_via/quantum/matrix_common.o
 .debug_str     0x0000ab24      0x3f2 .build/obj_custom_parallel_65_via/quantum/matrix.o
 .debug_str     0x0000ab24      0x2fd .build/obj_custom_parallel_65_via/quantum/debounce/sym_defer_g.o
 .debug_str     0x0000ab24      0x2b6 .build/obj_custom_parallel_65_via/quantum/main.o
 .debug_str     0x0000ab24      0x22b .build/obj_custom_parallel_65_via/platforms/avr/printf.o
 .debug_str     0x0000ab24      0x269 .build/obj_custom_parallel_65_via/quantum/color.o
 .debug_str     0x0000ab24     0x1250 .build/obj_custom_parallel_65_via/quantum/rgb_matrix/rgb_matrix.o
 .debug_str     0x0000ab24      0x2b7 .build/obj_custom_parallel_65_via/quantum/rgb_matrix/rgb_matrix_drivers.o
 .debug_str     0x0000ab24     0x4641 .build/obj_custom_parallel_65_via/quantum/process_keycode/process_rgb.o
 .debug_str     0x0000ab24      0x1fe .build/obj_custom_parallel_65_via/quantum/led_tables.o
 .debug_str     0x0000ab24      0x2e5 .build/obj_custom_parallel_65_via/ws2812_bitbang.o
 .debug_str     0x0000ab24      0x2ff .build/obj_custom_parallel_65_via/quantum/bootmagic/bootmagic.o
 .debug_str     0x0000ab24     0x44c1 .build/obj_custom_parallel_65_via/quantum/dynamic_keymap.o
 .debug_str     0x0000ab24     0x446c .build/obj_custom_parallel_65_via/quantum/process_keycode/process_grave_esc.o
 .debug_str     0x0000ab24     0x44c6 .build/obj_custom_parallel_65_via/quantum/process_keycode/process_magic.o
 .debug_str     0x0000ab24     0x44b6 .build/obj_custom_parallel_65_via/quantum/mousekey.o
 .debug_str     0x0000ab24     0x444a .build/obj_custom_parallel_65_via/quantum/send_string/send_string.o
 .debug_str     0x0000ab24     0x4412 .build/obj_custom_parallel_65_via/quantum/process_keycode/process_space_cadet.o
 .debug_str     0x0000ab24     0x43f0 .build/obj_custom_parallel_65_via/quantum/process_keycode/process_tri_layer.o
 .debug_str     0x0000ab24      0x2fe .build/obj_custom_parallel_65_via/quantum/tri_layer.o
 .debug_str     0x0000ab24      0xf69 .build/obj_custom_parallel_65_via/quantum/via.o
 .debug_str     0x0000ab24      0x5a2 .build/obj_custom_parallel_65_via/protocol/host.o
 .debug_str     0x0000ab24     0x43a6 .build/obj_custom_parallel_65_via/protocol/report.o
 .debug_str     0x0000ab24      0x38e .build/obj_custom_parallel_65_via/protocol/usb_device_state.o
 .debug_str     0x0000ab24      0x2bf .build/obj_custom_parallel_65_via/platforms/suspend.o
 .debug_str     0x0000ab24      0x210 .build/obj_custom_parallel_65_via/platforms/avr/platform.o
 .debug_str     0x0000ab24      0x37e .build/obj_custom_parallel_65_via/platforms/avr/suspend.o
 .debug_str     0x0000ab24      0x2a0 .build/obj_custom_parallel_65_via/platforms/avr/timer.o
 .debug_str     0x0000ab24      0x2b9 .build/obj_custom_parallel_65_via/platforms/avr/bootloaders/dfu.o
 .debug_str     0x0000ab24      0xda6 .build/obj_custom_parallel_65_via/lufa.o
 .debug_str     0x0000ab24      0xaed .build/obj_custom_parallel_65_via/usb_descriptor.o
 .debug_str     0x0000ab24      0x267 .build/obj_custom_parallel_65_via/lib/lufa/LUFA/Drivers/USB/Core/AVR8/Device_AVR8.o
 .debug_str     0x0000ab24      0x8c9 .build/obj_custom_parallel_65_via/lib/lufa/LUFA/Drivers/USB/Core/AVR8/EndpointStream_AVR8.o
 .debug_str     0x0000ab24      0x689 .build/obj_custom_parallel_65_via/lib/lufa/LUFA/Drivers/USB/Core/AVR8/Endpoint_AVR8.o
 .debug_str     0x0000ab24      0x5c8 .build/obj_custom_parallel_65_via/lib/lufa/LUFA/Drivers/USB/Core/AVR8/USBController_AVR8.o
 .debug_str     0x0000ab24      0x647 .build/obj_custom_parallel_65_via/lib/lufa/LUFA/Drivers/USB/Core/AVR8/USBInterrupt_AVR8.o
 .debug_str     0x0000ab24      0xa18 .build/obj_custom_parallel_65_via/lib/lufa/LUFA/Drivers/USB/Core/DeviceStandardReq.o
 .debug_str     0x0000ab24      0x240 .build/obj_custom_parallel_65_via/lib/lufa/LUFA/Drivers/USB/Core/Events.o
 .debug_str     0x0000ab24      0x3ee .build/obj_custom_parallel_65_via/lib/lufa/LUFA/Drivers/USB/Core/USBTask.o

.debug_loc      0x00000000     0xfad1
 *(.debug_loc)
 .debug_loc     0x00000000       0xe5 .build/obj_custom_parallel_65_via/quantum/keymap_introspection.o
 .debug_loc     0x000000e5      0xc56 .build/obj_custom_parallel_65_via/quantum/quantum.o
 .debug_loc     0x00000d3b      0x159 .build/obj_custom_parallel_65_via/quantum/led.o
 .debug_loc     0x00000e94      0xbd9 .build/obj_custom_parallel_65_via/quantum/action.o
 .debug_loc     0x00001a6d      0x901 .build/obj_custom_parallel_65_via/quantum/action_layer.o
 .debug_loc     0x0000236e      0x625 .build/obj_custom_parallel_65_via/quantum/action_tapping.o
 .debug_loc     0x00002993      0x37e .build/obj_custom_parallel_65_via/quantum/action_util.o
 .debug_loc     0x00002d11      0x255 .build/obj_custom_parallel_65_via/quantum/eeconfig.o
 .debug_loc     0x00002f66      0x44c .build/obj_custom_parallel_65_via/quantum/keyboard.o
 .debug_loc     0x000033b2      0x819 .build/obj_custom_parallel_65_via/quantum/keymap_common.o
 .debug_loc     0x00003bcb      0x225 .build/obj_custom_parallel_65_via/quantum/keycode_config.o
 .debug_loc     0x00003df0       0x25 .build/obj_custom_parallel_65_via/quantum/logging/sendchar.o
 .debug_loc     0x00003e15      0x22c .build/obj_custom_parallel_65_via/quantum/matrix_common.o
 .debug_loc     0x00004041      0x480 .build/obj_custom_parallel_65_via/quantum/matrix.o
 .debug_loc     0x000044c1      0x1d7 .build/obj_custom_parallel_65_via/quantum/debounce/sym_defer_g.o
 .debug_loc     0x00004698      0x1b0 .build/obj_custom_parallel_65_via/quantum/color.o
 .debug_loc     0x00004848     0x31b9 .build/obj_custom_parallel_65_via/quantum/rgb_matrix/rgb_matrix.o
 .debug_loc     0x00007a01      0x13f .build/obj_custom_parallel_65_via/quantum/rgb_matrix/rgb_matrix_drivers.o
 .debug_loc     0x00007b40      0x18d .build/obj_custom_parallel_65_via/quantum/process_keycode/process_rgb.o
 .debug_loc     0x00007ccd      0x229 .build/obj_custom_parallel_65_via/ws2812_bitbang.o
 .debug_loc     0x00007ef6       0x4e .build/obj_custom_parallel_65_via/quantum/bootmagic/bootmagic.o
 .debug_loc     0x00007f44      0xb0e .build/obj_custom_parallel_65_via/quantum/dynamic_keymap.o
 .debug_loc     0x00008a52      0x16d .build/obj_custom_parallel_65_via/quantum/process_keycode/process_grave_esc.o
 .debug_loc     0x00008bbf       0xb9 .build/obj_custom_parallel_65_via/quantum/process_keycode/process_magic.o
 .debug_loc     0x00008c78      0x3d6 .build/obj_custom_parallel_65_via/quantum/mousekey.o
 .debug_loc     0x0000904e     0x1100 .build/obj_custom_parallel_65_via/quantum/send_string/send_string.o
 .debug_loc     0x0000a14e      0x39c .build/obj_custom_parallel_65_via/quantum/process_keycode/process_space_cadet.o
 .debug_loc     0x0000a4ea      0x1a5 .build/obj_custom_parallel_65_via/quantum/process_keycode/process_tri_layer.o
 .debug_loc     0x0000a68f      0xc9b .build/obj_custom_parallel_65_via/quantum/via.o
 .debug_loc     0x0000b32a      0x15c .build/obj_custom_parallel_65_via/protocol/host.o
 .debug_loc     0x0000b486      0x26a .build/obj_custom_parallel_65_via/protocol/report.o
 .debug_loc     0x0000b6f0      0x11b .build/obj_custom_parallel_65_via/protocol/usb_device_state.o
 .debug_loc     0x0000b80b       0x52 .build/obj_custom_parallel_65_via/platforms/suspend.o
 .debug_loc     0x0000b85d       0x52 .build/obj_custom_parallel_65_via/platforms/avr/suspend.o
 .debug_loc     0x0000b8af      0x2b9 .build/obj_custom_parallel_65_via/platforms/avr/timer.o
 .debug_loc     0x0000bb68       0x7a .build/obj_custom_parallel_65_via/platforms/avr/bootloaders/dfu.o
 .debug_loc     0x0000bbe2      0x62d .build/obj_custom_parallel_65_via/lufa.o
 .debug_loc     0x0000c20f      0x2d8 .build/obj_custom_parallel_65_via/usb_descriptor.o
 .debug_loc     0x0000c4e7     0x27ac .build/obj_custom_parallel_65_via/lib/lufa/LUFA/Drivers/USB/Core/AVR8/EndpointStream_AVR8.o
 .debug_loc     0x0000ec93      0x4d8 .build/obj_custom_parallel_65_via/lib/lufa/LUFA/Drivers/USB/Core/AVR8/Endpoint_AVR8.o
 .debug_loc     0x0000f16b       0xf9 .build/obj_custom_parallel_65_via/lib/lufa/LUFA/Drivers/USB/Core/AVR8/USBController_AVR8.o
 .debug_loc     0x0000f264      0x495 .build/obj_custom_parallel_65_via/lib/lufa/LUFA/Drivers/USB/Core/AVR8/USBInterrupt_AVR8.o
 .debug_loc     0x0000f6f9      0x376 .build/obj_custom_parallel_65_via/lib/lufa/LUFA/Drivers/USB/Core/DeviceStandardReq.o
 .debug_loc     0x0000fa6f       0x62 .build/obj_custom_parallel_65_via/lib/lufa/LUFA/Drivers/USB/Core/USBTask.o

.debug_macinfo
 *(.debug_macinfo)

.debug_weaknames
 *(.debug_weaknames)

.debug_funcnames
 *(.debug_funcnames)

.debug_typenames
 *(.debug_typenames)

.debug_varnames
 *(.debug_varnames)

.debug_pubtypes
 *(.debug_pubtypes)

.debug_ranges   0x00000000     0x1e48
 *(.debug_ranges)
 .debug_ranges  0x00000000       0x28 .build/obj_custom_parallel_65_via/quantum/keymap_introspection.o
 .debug_ranges  0x00000028      0x138 .build/obj_custom_parallel_65_via/quantum/quantum.o
 .debug_ranges  0x00000160       0x58 .build/obj_custom_parallel_65_via/quantum/led.o
 .debug_ranges  0x000001b8      0x1f0 .build/obj_custom_parallel_65_via/quantum/action.o
 .debug_ranges  0x000003a8      0x160 .build/obj_custom_parallel_65_via/quantum/action_layer.o
 .debug_ranges  0x00000508       0x98 .build/obj_custom_parallel_65_via/quantum/action_tapping.o
 .debug_ranges  0x000005a0      0x168 .build/obj_custom_parallel_65_via/quantum/action_util.o
 .debug_ranges  0x00000708       0xc8 .build/obj_custom_parallel_65_via/quantum/eeconfig.o
 .debug_ranges  0x000007d0      0x150 .build/obj_custom_parallel_65_via/quantum/keyboard.o
 .debug_ranges  0x00000920       0x20 .build/obj_custom_parallel_65_via/quantum/keymap_common.o
 .debug_ranges  0x00000940       0x18 .build/obj_custom_parallel_65_via/quantum/keycode_config.o
 .debug_ranges  0x00000958       0x10 .build/obj_custom_parallel_65_via/quantum/logging/sendchar.o
 .debug_ranges  0x00000968       0x90 .build/obj_custom_parallel_65_via/quantum/matrix_common.o
 .debug_ranges  0x000009f8       0x60 .build/obj_custom_parallel_65_via/quantum/matrix.o
 .debug_ranges  0x00000a58       0x20 .build/obj_custom_parallel_65_via/quantum/debounce/sym_defer_g.o
 .debug_ranges  0x00000a78       0x18 .build/obj_custom_parallel_65_via/quantum/main.o
 .debug_ranges  0x00000a90       0x10 .build/obj_custom_parallel_65_via/platforms/avr/printf.o
 .debug_ranges  0x00000aa0       0x20 .build/obj_custom_parallel_65_via/quantum/color.o
 .debug_ranges  0x00000ac0      0x678 .build/obj_custom_parallel_65_via/quantum/rgb_matrix/rgb_matrix.o
 .debug_ranges  0x00001138       0x28 .build/obj_custom_parallel_65_via/quantum/rgb_matrix/rgb_matrix_drivers.o
 .debug_ranges  0x00001160       0x30 .build/obj_custom_parallel_65_via/quantum/process_keycode/process_rgb.o
 .debug_ranges  0x00001190       0x38 .build/obj_custom_parallel_65_via/ws2812_bitbang.o
 .debug_ranges  0x000011c8       0x28 .build/obj_custom_parallel_65_via/quantum/bootmagic/bootmagic.o
 .debug_ranges  0x000011f0      0x148 .build/obj_custom_parallel_65_via/quantum/dynamic_keymap.o
 .debug_ranges  0x00001338       0x28 .build/obj_custom_parallel_65_via/quantum/process_keycode/process_grave_esc.o
 .debug_ranges  0x00001360       0x10 .build/obj_custom_parallel_65_via/quantum/process_keycode/process_magic.o
 .debug_ranges  0x00001370       0x58 .build/obj_custom_parallel_65_via/quantum/mousekey.o
 .debug_ranges  0x000013c8      0x180 .build/obj_custom_parallel_65_via/quantum/send_string/send_string.o
 .debug_ranges  0x00001548       0x20 .build/obj_custom_parallel_65_via/quantum/process_keycode/process_space_cadet.o
 .debug_ranges  0x00001568       0x10 .build/obj_custom_parallel_65_via/quantum/process_keycode/process_tri_layer.o
 .debug_ranges  0x00001578       0x40 .build/obj_custom_parallel_65_via/quantum/tri_layer.o
 .debug_ranges  0x000015b8       0xb0 .build/obj_custom_parallel_65_via/quantum/via.o
 .debug_ranges  0x00001668       0x78 .build/obj_custom_parallel_65_via/protocol/host.o
 .debug_ranges  0x000016e0       0x68 .build/obj_custom_parallel_65_via/protocol/report.o
 .debug_ranges  0x00001748       0x40 .build/obj_custom_parallel_65_via/protocol/usb_device_state.o
 .debug_ranges  0x00001788       0x58 .build/obj_custom_parallel_65_via/platforms/suspend.o
 .debug_ranges  0x000017e0       0x10 .build/obj_custom_parallel_65_via/platforms/avr/platform.o
 .debug_ranges  0x000017f0       0x20 .build/obj_custom_parallel_65_via/platforms/avr/suspend.o
 .debug_ranges  0x00001810       0x40 .build/obj_custom_parallel_65_via/platforms/avr/timer.o
 .debug_ranges  0x00001850       0x20 .build/obj_custom_parallel_65_via/platforms/avr/bootloaders/dfu.o
 .debug_ranges  0x00001870      0x118 .build/obj_custom_parallel_65_via/lufa.o
 .debug_ranges  0x00001988       0x28 .build/obj_custom_parallel_65_via/usb_descriptor.o
 .debug_ranges  0x000019b0       0x10 .build/obj_custom_parallel_65_via/lib/lufa/LUFA/Drivers/USB/Core/AVR8/Device_AVR8.o
 .debug_ranges  0x000019c0      0x1f8 .build/obj_custom_parallel_65_via/lib/lufa/LUFA/Drivers/USB/Core/AVR8/EndpointStream_AVR8.o
 .debug_ranges  0x00001bb8       0xd0 .build/obj_custom_parallel_65_via/lib/lufa/LUFA/Drivers/USB/Core/AVR8/Endpoint_AVR8.o
 .debug_ranges  0x00001c88       0x20 .build/obj_custom_parallel_65_via/lib/lufa/LUFA/Drivers/USB/Core/AVR8/USBController_AVR8.o
 .debug_ranges  0x00001ca8       0x28 .build/obj_custom_parallel_65_via/lib/lufa/LUFA/Drivers/USB/Core/AVR8/USBInterrupt_AVR8.o
 .debug_ranges  0x00001cd0      0x148 .build/obj_custom_parallel_65_via/lib/lufa/LUFA/Drivers/USB/Core/DeviceStandardReq.o
 .debug_ranges  0x00001e18       0x20 .build/obj_custom_parallel_65_via/lib/lufa/LUFA/Drivers/USB/Core/Events.o
 .debug_ranges  0x00001e38       0x10 .build/obj_custom_parallel_65_via/lib/lufa/LUFA/Drivers/USB/Core/USBTask.o

.debug_addr
 *(.debug_addr)

.debug_line_str
 *(.debug_line_str)

.debug_loclists
 *(.debug_loclists)

.debug_macro
 *(.debug_macro)

.debug_names
 *(.debug_names)

.debug_rnglists
 *(.debug_rnglists)

.debug_str_offsets
 *(.debug_str_offsets)

.debug_sup
 *(.debug_sup)
OUTPUT(.build/custom_parallel_65_via.elf elf32-avr)
LOAD linker stubs

Cross Reference Table

Symbol                                            File
ALPHAS_MODS                                       .build/obj_custom_parallel_65_via/quantum/rgb_matrix/rgb_matrix.o
BAND_PINWHEEL_SAT                                 .build/obj_custom_parallel_65_via/quantum/rgb_matrix/rgb_matrix.o
BAND_PINWHEEL_VAL                                 .build/obj_custom_parallel_65_via/quantum/rgb_matrix/rgb_matrix.o
BAND_SAT                                          .build/obj_custom_parallel_65_via/quantum/rgb_matrix/rgb_matrix.o
BAND_SPIRAL_SAT                                   .build/obj_custom_parallel_65_via/quantum/rgb_matrix/rgb_matrix.o
CALLBACK_HIDParser_FilterHIDReportItem            .build/obj_custom_parallel_65_via/lib/lufa/LUFA/Drivers/USB/Class/Common/HIDParser.o
CALLBACK_USB_GetDescriptor                        .build/obj_custom_parallel_65_via/lufa.o
                                                  .build/obj_custom_parallel_65_via/lib/lufa/LUFA/Drivers/USB/Core/DeviceStandardReq.o
CIE1931_CURVE                                     .build/obj_custom_parallel_65_via/quantum/led_tables.o
                                                  .build/obj_custom_parallel_65_via/quantum/color.o
ConfigurationDescriptor                           .build/obj_custom_parallel_65_via/usb_descriptor.o
DeviceDescriptor                                  .build/obj_custom_parallel_65_via/usb_descriptor.o
EVENT_USB_Device_ConfigurationChanged             .build/obj_custom_parallel_65_via/lufa.o
                                                  .build/obj_custom_parallel_65_via/lib/lufa/LUFA/Drivers/USB/Core/DeviceStandardReq.o
EVENT_USB_Device_Connect                          .build/obj_custom_parallel_65_via/lufa.o
                                                  .build/obj_custom_parallel_65_via/lib/lufa/LUFA/Drivers/USB/Core/AVR8/USBInterrupt_AVR8.o
EVENT_USB_Device_ControlRequest                   .build/obj_custom_parallel_65_via/lufa.o
                                                  .build/obj_custom_parallel_65_via/lib/lufa/LUFA/Drivers/USB/Core/DeviceStandardReq.o
EVENT_USB_Device_Disconnect                       .build/obj_custom_parallel_65_via/lufa.o
                                                  .build/obj_custom_parallel_65_via/lib/lufa/LUFA/Drivers/USB/Core/AVR8/USBInterrupt_AVR8.o
EVENT_USB_Device_Reset                            .build/obj_custom_parallel_65_via/lufa.o
                                                  .build/obj_custom_parallel_65_via/lib/lufa/LUFA/Drivers/USB/Core/AVR8/USBInterrupt_AVR8.o
EVENT_USB_Device_StartOfFrame                     .build/obj_custom_parallel_65_via/lib/lufa/LUFA/Drivers/USB/Core/Events.o
                                                  .build/obj_custom_parallel_65_via/lib/lufa/LUFA/Drivers/USB/Core/AVR8/USBInterrupt_AVR8.o
EVENT_USB_Device_Suspend                          .build/obj_custom_parallel_65_via/lufa.o
                                                  .build/obj_custom_parallel_65_via/lib/lufa/LUFA/Drivers/USB/Core/AVR8/USBInterrupt_AVR8.o
EVENT_USB_Device_WakeUp                           .build/obj_custom_parallel_65_via/lufa.o
                                                  .build/obj_custom_parallel_65_via/lib/lufa/LUFA/Drivers/USB/Core/AVR8/USBInterrupt_AVR8.o
Endpoint_ClearEndpoints                           .build/obj_custom_parallel_65_via/lib/lufa/LUFA/Drivers/USB/Core/AVR8/Endpoint_AVR8.o
Endpoint_ClearStatusStage                         .build/obj_custom_parallel_65_via/lib/lufa/LUFA/Drivers/USB/Core/AVR8/Endpoint_AVR8.o
                                                  .build/obj_custom_parallel_65_via/lib/lufa/LUFA/Drivers/USB/Core/DeviceStandardReq.o
                                                  .build/obj_custom_parallel_65_via/lufa.o
Endpoint_ConfigureEndpointTable                   .build/obj_custom_parallel_65_via/lib/lufa/LUFA/Drivers/USB/Core/AVR8/Endpoint_AVR8.o
Endpoint_ConfigureEndpoint_Prv                    .build/obj_custom_parallel_65_via/lib/lufa/LUFA/Drivers/USB/Core/AVR8/Endpoint_AVR8.o
                                                  .build/obj_custom_parallel_65_via/lib/lufa/LUFA/Drivers/USB/Core/AVR8/USBInterrupt_AVR8.o
                                                  .build/obj_custom_parallel_65_via/lib/lufa/LUFA/Drivers/USB/Core/AVR8/USBController_AVR8.o
                                                  .build/obj_custom_parallel_65_via/lufa.o
Endpoint_Discard_Stream                           .build/obj_custom_parallel_65_via/lib/lufa/LUFA/Drivers/USB/Core/AVR8/EndpointStream_AVR8.o
Endpoint_Null_Stream                              .build/obj_custom_parallel_65_via/lib/lufa/LUFA/Drivers/USB/Core/AVR8/EndpointStream_AVR8.o
Endpoint_Read_Control_EStream_BE                  .build/obj_custom_parallel_65_via/lib/lufa/LUFA/Drivers/USB/Core/AVR8/EndpointStream_AVR8.o
Endpoint_Read_Control_EStream_LE                  .build/obj_custom_parallel_65_via/lib/lufa/LUFA/Drivers/USB/Core/AVR8/EndpointStream_AVR8.o
Endpoint_Read_Control_Stream_BE                   .build/obj_custom_parallel_65_via/lib/lufa/LUFA/Drivers/USB/Core/AVR8/EndpointStream_AVR8.o
Endpoint_Read_Control_Stream_LE                   .build/obj_custom_parallel_65_via/lib/lufa/LUFA/Drivers/USB/Core/AVR8/EndpointStream_AVR8.o
Endpoint_Read_EStream_BE                          .build/obj_custom_parallel_65_via/lib/lufa/LUFA/Drivers/USB/Core/AVR8/EndpointStream_AVR8.o
Endpoint_Read_EStream_LE                          .build/obj_custom_parallel_65_via/lib/lufa/LUFA/Drivers/USB/Core/AVR8/EndpointStream_AVR8.o
Endpoint_Read_Stream_BE                           .build/obj_custom_parallel_65_via/lib/lufa/LUFA/Drivers/USB/Core/AVR8/EndpointStream_AVR8.o
Endpoint_Read_Stream_LE                           .build/obj_custom_parallel_65_via/lib/lufa/LUFA/Drivers/USB/Core/AVR8/EndpointStream_AVR8.o
                                                  .build/obj_custom_parallel_65_via/lufa.o
Endpoint_WaitUntilReady                           .build/obj_custom_parallel_65_via/lib/lufa/LUFA/Drivers/USB/Core/AVR8/Endpoint_AVR8.o
                                                  .build/obj_custom_parallel_65_via/lib/lufa/LUFA/Drivers/USB/Core/AVR8/EndpointStream_AVR8.o
Endpoint_Write_Control_EStream_BE                 .build/obj_custom_parallel_65_via/lib/lufa/LUFA/Drivers/USB/Core/AVR8/EndpointStream_AVR8.o
Endpoint_Write_Control_EStream_LE                 .build/obj_custom_parallel_65_via/lib/lufa/LUFA/Drivers/USB/Core/AVR8/EndpointStream_AVR8.o
Endpoint_Write_Control_PStream_BE                 .build/obj_custom_parallel_65_via/lib/lufa/LUFA/Drivers/USB/Core/AVR8/EndpointStream_AVR8.o
Endpoint_Write_Control_PStream_LE                 .build/obj_custom_parallel_65_via/lib/lufa/LUFA/Drivers/USB/Core/AVR8/EndpointStream_AVR8.o
                                                  .build/obj_custom_parallel_65_via/lib/lufa/LUFA/Drivers/USB/Core/DeviceStandardReq.o
Endpoint_Write_Control_Stream_BE                  .build/obj_custom_parallel_65_via/lib/lufa/LUFA/Drivers/USB/Core/AVR8/EndpointStream_AVR8.o
Endpoint_Write_Control_Stream_LE                  .build/obj_custom_parallel_65_via/lib/lufa/LUFA/Drivers/USB/Core/AVR8/EndpointStream_AVR8.o
                                                  .build/obj_custom_parallel_65_via/lib/lufa/LUFA/Drivers/USB/Core/DeviceStandardReq.o
                                                  .build/obj_custom_parallel_65_via/lufa.o
Endpoint_Write_EStream_BE                         .build/obj_custom_parallel_65_via/lib/lufa/LUFA/Drivers/USB/Core/AVR8/EndpointStream_AVR8.o
Endpoint_Write_EStream_LE                         .build/obj_custom_parallel_65_via/lib/lufa/LUFA/Drivers/USB/Core/AVR8/EndpointStream_AVR8.o
Endpoint_Write_PStream_BE                         .build/obj_custom_parallel_65_via/lib/lufa/LUFA/Drivers/USB/Core/AVR8/EndpointStream_AVR8.o
Endpoint_Write_PStream_LE                         .build/obj_custom_parallel_65_via/lib/lufa/LUFA/Drivers/USB/Core/AVR8/EndpointStream_AVR8.o
Endpoint_Write_Stream_BE                          .build/obj_custom_parallel_65_via/lib/lufa/LUFA/Drivers/USB/Core/AVR8/EndpointStream_AVR8.o
Endpoint_Write_Stream_LE                          .build/obj_custom_parallel_65_via/lib/lufa/LUFA/Drivers/USB/Core/AVR8/EndpointStream_AVR8.o
                                                  .build/obj_custom_parallel_65_via/lufa.o
KeyboardReport                                    .build/obj_custom_parallel_65_via/usb_descriptor.o
LanguageString                                    .build/obj_custom_parallel_65_via/usb_descriptor.o
ManufacturerString                                .build/obj_custom_parallel_65_via/usb_descriptor.o
ProductString                                     .build/obj_custom_parallel_65_via/usb_descriptor.o
RawReport                                         .build/obj_custom_parallel_65_via/usb_descriptor.o
SOLID_COLOR                                       .build/obj_custom_parallel_65_via/quantum/rgb_matrix/rgb_matrix.o
SOLID_SPLASH                                      .build/obj_custom_parallel_65_via/quantum/rgb_matrix/rgb_matrix.o
SOLID_SPLASH_math                                 .build/obj_custom_parallel_65_via/quantum/rgb_matrix/rgb_matrix.o
SPLASH                                            .build/obj_custom_parallel_65_via/quantum/rgb_matrix/rgb_matrix.o
SPLASH_math                                       .build/obj_custom_parallel_65_via/quantum/rgb_matrix/rgb_matrix.o
SharedReport                                      .build/obj_custom_parallel_65_via/usb_descriptor.o
USB_ControlRequest                                .build/obj_custom_parallel_65_via/lib/lufa/LUFA/Drivers/USB/Core/USBTask.o
                                                  .build/obj_custom_parallel_65_via/lib/lufa/LUFA/Drivers/USB/Core/DeviceStandardReq.o
                                                  .build/obj_custom_parallel_65_via/lib/lufa/LUFA/Drivers/USB/Core/AVR8/Endpoint_AVR8.o
                                                  .build/obj_custom_parallel_65_via/lib/lufa/LUFA/Drivers/USB/Core/AVR8/EndpointStream_AVR8.o
                                                  .build/obj_custom_parallel_65_via/lufa.o
USB_DeviceState                                   .build/obj_custom_parallel_65_via/lib/lufa/LUFA/Drivers/USB/Core/USBTask.o
                                                  .build/obj_custom_parallel_65_via/protocol/lufa/usb_util.o
                                                  .build/obj_custom_parallel_65_via/lib/lufa/LUFA/Drivers/USB/Core/DeviceStandardReq.o
                                                  .build/obj_custom_parallel_65_via/lib/lufa/LUFA/Drivers/USB/Core/AVR8/USBInterrupt_AVR8.o
                                                  .build/obj_custom_parallel_65_via/lib/lufa/LUFA/Drivers/USB/Core/AVR8/USBController_AVR8.o
                                                  .build/obj_custom_parallel_65_via/lib/lufa/LUFA/Drivers/USB/Core/AVR8/Endpoint_AVR8.o
                                                  .build/obj_custom_parallel_65_via/lib/lufa/LUFA/Drivers/USB/Core/AVR8/EndpointStream_AVR8.o
                                                  .build/obj_custom_parallel_65_via/lufa.o
                                                  .build/obj_custom_parallel_65_via/platforms/avr/suspend.o
USB_Device_ConfigurationNumber                    .build/obj_custom_parallel_65_via/lib/lufa/LUFA/Drivers/USB/Core/DeviceStandardReq.o
                                                  .build/obj_custom_parallel_65_via/lib/lufa/LUFA/Drivers/USB/Core/AVR8/USBInterrupt_AVR8.o
                                                  .build/obj_custom_parallel_65_via/lib/lufa/LUFA/Drivers/USB/Core/AVR8/USBController_AVR8.o
                                                  .build/obj_custom_parallel_65_via/lufa.o
USB_Device_CurrentlySelfPowered                   .build/obj_custom_parallel_65_via/lib/lufa/LUFA/Drivers/USB/Core/DeviceStandardReq.o
                                                  .build/obj_custom_parallel_65_via/lib/lufa/LUFA/Drivers/USB/Core/AVR8/USBController_AVR8.o
USB_Device_ProcessControlRequest                  .build/obj_custom_parallel_65_via/lib/lufa/LUFA/Drivers/USB/Core/DeviceStandardReq.o
                                                  .build/obj_custom_parallel_65_via/lib/lufa/LUFA/Drivers/USB/Core/USBTask.o
                                                  .build/obj_custom_parallel_65_via/lib/lufa/LUFA/Drivers/USB/Core/AVR8/USBInterrupt_AVR8.o
USB_Device_RemoteWakeupEnabled                    .build/obj_custom_parallel_65_via/lib/lufa/LUFA/Drivers/USB/Core/DeviceStandardReq.o
                                                  .build/obj_custom_parallel_65_via/lib/lufa/LUFA/Drivers/USB/Core/AVR8/USBController_AVR8.o
                                                  .build/obj_custom_parallel_65_via/lufa.o
USB_Device_SendRemoteWakeup                       .build/obj_custom_parallel_65_via/lib/lufa/LUFA/Drivers/USB/Core/AVR8/Device_AVR8.o
                                                  .build/obj_custom_parallel_65_via/lufa.o
USB_Disable                                       .build/obj_custom_parallel_65_via/lib/lufa/LUFA/Drivers/USB/Core/AVR8/USBController_AVR8.o
                                                  .build/obj_custom_parallel_65_via/protocol/lufa/usb_util.o
                                                  .build/obj_custom_parallel_65_via/lufa.o
USB_Event_Stub                                    .build/obj_custom_parallel_65_via/lib/lufa/LUFA/Drivers/USB/Core/Events.o
USB_Event_Stub_2                                  .build/obj_custom_parallel_65_via/lib/lufa/LUFA/Drivers/USB/Core/Events.o
USB_Event_Stub_3                                  .build/obj_custom_parallel_65_via/lib/lufa/LUFA/Drivers/USB/Core/Events.o
USB_GetHIDReportItemInfo                          .build/obj_custom_parallel_65_via/lib/lufa/LUFA/Drivers/USB/Class/Common/HIDParser.o
USB_GetHIDReportSize                              .build/obj_custom_parallel_65_via/lib/lufa/LUFA/Drivers/USB/Class/Common/HIDParser.o
USB_GetNextDescriptorComp                         .build/obj_custom_parallel_65_via/lib/lufa/LUFA/Drivers/USB/Core/ConfigDescriptors.o
USB_GetNextDescriptorOfType                       .build/obj_custom_parallel_65_via/lib/lufa/LUFA/Drivers/USB/Core/ConfigDescriptors.o
USB_GetNextDescriptorOfTypeAfter                  .build/obj_custom_parallel_65_via/lib/lufa/LUFA/Drivers/USB/Core/ConfigDescriptors.o
USB_GetNextDescriptorOfTypeBefore                 .build/obj_custom_parallel_65_via/lib/lufa/LUFA/Drivers/USB/Core/ConfigDescriptors.o
USB_INT_ClearAllInterrupts                        .build/obj_custom_parallel_65_via/lib/lufa/LUFA/Drivers/USB/Core/AVR8/USBInterrupt_AVR8.o
                                                  .build/obj_custom_parallel_65_via/lib/lufa/LUFA/Drivers/USB/Core/AVR8/USBController_AVR8.o
USB_INT_DisableAllInterrupts                      .build/obj_custom_parallel_65_via/lib/lufa/LUFA/Drivers/USB/Core/AVR8/USBInterrupt_AVR8.o
                                                  .build/obj_custom_parallel_65_via/lib/lufa/LUFA/Drivers/USB/Core/AVR8/USBController_AVR8.o
USB_Init                                          .build/obj_custom_parallel_65_via/lib/lufa/LUFA/Drivers/USB/Core/AVR8/USBController_AVR8.o
                                                  .build/obj_custom_parallel_65_via/lufa.o
USB_IsInitialized                                 .build/obj_custom_parallel_65_via/lib/lufa/LUFA/Drivers/USB/Core/USBTask.o
                                                  .build/obj_custom_parallel_65_via/lib/lufa/LUFA/Drivers/USB/Core/AVR8/USBController_AVR8.o
                                                  .build/obj_custom_parallel_65_via/lufa.o
USB_ProcessHIDReport                              .build/obj_custom_parallel_65_via/lib/lufa/LUFA/Drivers/USB/Class/Common/HIDParser.o
USB_ResetInterface                                .build/obj_custom_parallel_65_via/lib/lufa/LUFA/Drivers/USB/Core/AVR8/USBController_AVR8.o
USB_SetHIDReportItemInfo                          .build/obj_custom_parallel_65_via/lib/lufa/LUFA/Drivers/USB/Class/Common/HIDParser.o
USB_USBTask                                       .build/obj_custom_parallel_65_via/lib/lufa/LUFA/Drivers/USB/Core/USBTask.o
                                                  .build/obj_custom_parallel_65_via/lufa.o
__FUSE_REGION_LENGTH__                            c:/qmk_msys/mingw64/bin/../lib/gcc/avr/12.2.0/../../../../avr/lib/avr5/crtatmega32u4.o
__bad_interrupt                                   c:/qmk_msys/mingw64/bin/../lib/gcc/avr/12.2.0/../../../../avr/lib/avr5/crtatmega32u4.o
__bss_end                                         c:/qmk_msys/mingw64/bin/../lib/gcc/avr/12.2.0/avr5\libgcc.a(_clear_bss.o)
__bss_start                                       c:/qmk_msys/mingw64/bin/../lib/gcc/avr/12.2.0/avr5\libgcc.a(_clear_bss.o)
__bswapsi2                                        c:/qmk_msys/mingw64/bin/../lib/gcc/avr/12.2.0/avr5\libgcc.a(_bswapsi2.o)
                                                  .build/obj_custom_parallel_65_via/quantum/via.o
__data_end                                        c:/qmk_msys/mingw64/bin/../lib/gcc/avr/12.2.0/avr5\libgcc.a(_copy_data.o)
__data_load_start                                 c:/qmk_msys/mingw64/bin/../lib/gcc/avr/12.2.0/avr5\libgcc.a(_copy_data.o)
__data_start                                      c:/qmk_msys/mingw64/bin/../lib/gcc/avr/12.2.0/avr5\libgcc.a(_copy_data.o)
__divmodhi4                                       c:/qmk_msys/mingw64/bin/../lib/gcc/avr/12.2.0/avr5\libgcc.a(_divmodhi4.o)
                                                  .build/obj_custom_parallel_65_via/quantum/mousekey.o
                                                  .build/obj_custom_parallel_65_via/quantum/rgb_matrix/rgb_matrix.o
__divmodsi4                                       c:/qmk_msys/mingw64/bin/../lib/gcc/avr/12.2.0/avr5\libgcc.a(_divmodsi4.o)
                                                  .build/obj_custom_parallel_65_via/quantum/rgb_matrix/rgb_matrix.o
__do_clear_bss                                    c:/qmk_msys/mingw64/bin/../lib/gcc/avr/12.2.0/avr5\libgcc.a(_clear_bss.o)
                                                  .build/obj_custom_parallel_65_via/lib/lufa/LUFA/Drivers/USB/Core/USBTask.o
                                                  .build/obj_custom_parallel_65_via/lib/lufa/LUFA/Drivers/USB/Core/DeviceStandardReq.o
                                                  .build/obj_custom_parallel_65_via/lufa.o
                                                  .build/obj_custom_parallel_65_via/platforms/avr/timer.o
                                                  .build/obj_custom_parallel_65_via/platforms/avr/suspend.o
                                                  .build/obj_custom_parallel_65_via/protocol/usb_device_state.o
                                                  .build/obj_custom_parallel_65_via/protocol/host.o
                                                  .build/obj_custom_parallel_65_via/quantum/process_keycode/process_space_cadet.o
                                                  .build/obj_custom_parallel_65_via/quantum/mousekey.o
                                                  .build/obj_custom_parallel_65_via/quantum/process_keycode/process_grave_esc.o
                                                  .build/obj_custom_parallel_65_via/quantum/rgb_matrix/rgb_matrix_drivers.o
                                                  .build/obj_custom_parallel_65_via/quantum/rgb_matrix/rgb_matrix.o
                                                  .build/obj_custom_parallel_65_via/quantum/debounce/sym_defer_g.o
                                                  .build/obj_custom_parallel_65_via/quantum/matrix_common.o
                                                  .build/obj_custom_parallel_65_via/quantum/logging/debug.o
                                                  .build/obj_custom_parallel_65_via/quantum/keycode_config.o
                                                  .build/obj_custom_parallel_65_via/quantum/keyboard.o
                                                  .build/obj_custom_parallel_65_via/quantum/action_util.o
                                                  .build/obj_custom_parallel_65_via/quantum/action_tapping.o
                                                  .build/obj_custom_parallel_65_via/quantum/action_layer.o
                                                  .build/obj_custom_parallel_65_via/quantum/action.o
                                                  .build/obj_custom_parallel_65_via/quantum/led.o
                                                  .build/obj_custom_parallel_65_via/quantum/quantum.o
__do_copy_data                                    c:/qmk_msys/mingw64/bin/../lib/gcc/avr/12.2.0/avr5\libgcc.a(_copy_data.o)
                                                  .build/obj_custom_parallel_65_via/usb_descriptor.o
                                                  .build/obj_custom_parallel_65_via/lufa.o
                                                  .build/obj_custom_parallel_65_via/quantum/tri_layer.o
                                                  .build/obj_custom_parallel_65_via/quantum/mousekey.o
                                                  .build/obj_custom_parallel_65_via/lib/lib8tion/lib8tion.o
                                                  .build/obj_custom_parallel_65_via/quantum/rgb_matrix/rgb_matrix_drivers.o
                                                  .build/obj_custom_parallel_65_via/quantum/rgb_matrix/rgb_matrix.o
                                                  .build/obj_custom_parallel_65_via/quantum/matrix.o
                                                  .build/obj_custom_parallel_65_via/quantum/keymap_common.o
                                                  .build/obj_custom_parallel_65_via/quantum/action_util.o
                                                  .build/obj_custom_parallel_65_via/quantum/action.o
                                                  .build/obj_custom_parallel_65_via/quantum/quantum.o
                                                  .build/obj_custom_parallel_65_via/.build/obj_custom_parallel_65_via/src/default_keyboard.o
__epilogue_restores__                             c:/qmk_msys/mingw64/bin/../lib/gcc/avr/12.2.0/avr5\libgcc.a(_epilogue.o)
                                                  .build/obj_custom_parallel_65_via/lib/lufa/LUFA/Drivers/USB/Core/DeviceStandardReq.o
                                                  .build/obj_custom_parallel_65_via/lib/lufa/LUFA/Drivers/USB/Core/ConfigDescriptors.o
                                                  .build/obj_custom_parallel_65_via/lib/lufa/LUFA/Drivers/USB/Core/AVR8/EndpointStream_AVR8.o
                                                  .build/obj_custom_parallel_65_via/lib/lufa/LUFA/Drivers/USB/Class/Common/HIDParser.o
                                                  .build/obj_custom_parallel_65_via/lufa.o
                                                  .build/obj_custom_parallel_65_via/platforms/avr/timer.o
                                                  .build/obj_custom_parallel_65_via/platforms/avr/hardware_id.o
                                                  .build/obj_custom_parallel_65_via/protocol/host.o
                                                  .build/obj_custom_parallel_65_via/quantum/via.o
                                                  .build/obj_custom_parallel_65_via/quantum/send_string/send_string.o
                                                  .build/obj_custom_parallel_65_via/quantum/mousekey.o
                                                  .build/obj_custom_parallel_65_via/quantum/dynamic_keymap.o
                                                  .build/obj_custom_parallel_65_via/quantum/rgb_matrix/rgb_matrix_drivers.o
                                                  .build/obj_custom_parallel_65_via/quantum/rgb_matrix/rgb_matrix.o
                                                  .build/obj_custom_parallel_65_via/quantum/color.o
                                                  .build/obj_custom_parallel_65_via/quantum/debounce/sym_defer_g.o
                                                  .build/obj_custom_parallel_65_via/quantum/matrix.o
                                                  .build/obj_custom_parallel_65_via/quantum/keyboard.o
                                                  .build/obj_custom_parallel_65_via/quantum/eeconfig.o
                                                  .build/obj_custom_parallel_65_via/quantum/action_tapping.o
                                                  .build/obj_custom_parallel_65_via/quantum/action_layer.o
                                                  .build/obj_custom_parallel_65_via/quantum/action.o
                                                  .build/obj_custom_parallel_65_via/quantum/led.o
                                                  .build/obj_custom_parallel_65_via/quantum/bitwise.o
                                                  .build/obj_custom_parallel_65_via/quantum/quantum.o
__heap_end                                        c:/qmk_msys/mingw64/bin/../lib/gcc/avr/12.2.0/../../../../avr/lib/avr5/crtatmega32u4.o
__init                                            c:/qmk_msys/mingw64/bin/../lib/gcc/avr/12.2.0/../../../../avr/lib/avr5/crtatmega32u4.o
__negsi2                                          c:/qmk_msys/mingw64/bin/../lib/gcc/avr/12.2.0/avr5\libgcc.a(_negsi2.o)
                                                  c:/qmk_msys/mingw64/bin/../lib/gcc/avr/12.2.0/avr5\libgcc.a(_divmodsi4.o)
__popcounthi2                                     c:/qmk_msys/mingw64/bin/../lib/gcc/avr/12.2.0/avr5\libgcc.a(_popcounthi2.o)
                                                  c:/qmk_msys/mingw64/bin/../lib/gcc/avr/12.2.0/avr5\libgcc.a(_popcountsi2.o)
                                                  .build/obj_custom_parallel_65_via/quantum/bitwise.o
__popcounthi2_tail                                c:/qmk_msys/mingw64/bin/../lib/gcc/avr/12.2.0/avr5\libgcc.a(_popcounthi2.o)
                                                  c:/qmk_msys/mingw64/bin/../lib/gcc/avr/12.2.0/avr5\libgcc.a(_popcountsi2.o)
__popcountqi2                                     c:/qmk_msys/mingw64/bin/../lib/gcc/avr/12.2.0/avr5\libgcc.a(_popcountqi2.o)
                                                  c:/qmk_msys/mingw64/bin/../lib/gcc/avr/12.2.0/avr5\libgcc.a(_popcounthi2.o)
__popcountsi2                                     c:/qmk_msys/mingw64/bin/../lib/gcc/avr/12.2.0/avr5\libgcc.a(_popcountsi2.o)
                                                  .build/obj_custom_parallel_65_via/quantum/bitwise.o
__prologue_saves__                                c:/qmk_msys/mingw64/bin/../lib/gcc/avr/12.2.0/avr5\libgcc.a(_prologue.o)
                                                  .build/obj_custom_parallel_65_via/lib/lufa/LUFA/Drivers/USB/Core/DeviceStandardReq.o
                                                  .build/obj_custom_parallel_65_via/lib/lufa/LUFA/Drivers/USB/Core/ConfigDescriptors.o
                                                  .build/obj_custom_parallel_65_via/lib/lufa/LUFA/Drivers/USB/Class/Common/HIDParser.o
                                                  .build/obj_custom_parallel_65_via/lufa.o
                                                  .build/obj_custom_parallel_65_via/platforms/avr/timer.o
                                                  .build/obj_custom_parallel_65_via/platforms/avr/hardware_id.o
                                                  .build/obj_custom_parallel_65_via/protocol/host.o
                                                  .build/obj_custom_parallel_65_via/quantum/via.o
                                                  .build/obj_custom_parallel_65_via/quantum/send_string/send_string.o
                                                  .build/obj_custom_parallel_65_via/quantum/mousekey.o
                                                  .build/obj_custom_parallel_65_via/quantum/dynamic_keymap.o
                                                  .build/obj_custom_parallel_65_via/quantum/rgb_matrix/rgb_matrix.o
                                                  .build/obj_custom_parallel_65_via/quantum/color.o
                                                  .build/obj_custom_parallel_65_via/quantum/debounce/sym_defer_g.o
                                                  .build/obj_custom_parallel_65_via/quantum/matrix.o
                                                  .build/obj_custom_parallel_65_via/quantum/keyboard.o
                                                  .build/obj_custom_parallel_65_via/quantum/eeconfig.o
                                                  .build/obj_custom_parallel_65_via/quantum/action_tapping.o
                                                  .build/obj_custom_parallel_65_via/quantum/action_layer.o
                                                  .build/obj_custom_parallel_65_via/quantum/action.o
                                                  .build/obj_custom_parallel_65_via/quantum/led.o
                                                  .build/obj_custom_parallel_65_via/quantum/bitwise.o
                                                  .build/obj_custom_parallel_65_via/quantum/quantum.o
__stack                                           c:/qmk_msys/mingw64/bin/../lib/gcc/avr/12.2.0/../../../../avr/lib/avr5/crtatmega32u4.o
__tablejump2__                                    c:/qmk_msys/mingw64/bin/../lib/gcc/avr/12.2.0/avr5\libgcc.a(_tablejump2.o)
                                                  .build/obj_custom_parallel_65_via/lib/lufa/LUFA/Drivers/USB/Core/DeviceStandardReq.o
                                                  .build/obj_custom_parallel_65_via/quantum/via.o
                                                  .build/obj_custom_parallel_65_via/quantum/process_keycode/process_space_cadet.o
                                                  .build/obj_custom_parallel_65_via/quantum/mousekey.o
                                                  .build/obj_custom_parallel_65_via/quantum/process_keycode/process_magic.o
                                                  .build/obj_custom_parallel_65_via/quantum/process_keycode/process_rgb.o
                                                  .build/obj_custom_parallel_65_via/quantum/rgb_matrix/rgb_matrix.o
                                                  .build/obj_custom_parallel_65_via/quantum/action.o
__udivmodhi4                                      c:/qmk_msys/mingw64/bin/../lib/gcc/avr/12.2.0/avr5\libgcc.a(_udivmodhi4.o)
                                                  c:/qmk_msys/mingw64/bin/../lib/gcc/avr/12.2.0/avr5\libgcc.a(_divmodhi4.o)
                                                  .build/obj_custom_parallel_65_via/quantum/via.o
                                                  .build/obj_custom_parallel_65_via/quantum/color.o
__udivmodsi4                                      c:/qmk_msys/mingw64/bin/../lib/gcc/avr/12.2.0/avr5\libgcc.a(_udivmodsi4.o)
                                                  c:/qmk_msys/mingw64/bin/../lib/gcc/avr/12.2.0/avr5\libgcc.a(_divmodsi4.o)
                                                  .build/obj_custom_parallel_65_via/quantum/quantum.o
__vector_1                                        c:/qmk_msys/mingw64/bin/../lib/gcc/avr/12.2.0/../../../../avr/lib/avr5/crtatmega32u4.o
__vector_10                                       .build/obj_custom_parallel_65_via/lib/lufa/LUFA/Drivers/USB/Core/AVR8/USBInterrupt_AVR8.o
                                                  c:/qmk_msys/mingw64/bin/../lib/gcc/avr/12.2.0/../../../../avr/lib/avr5/crtatmega32u4.o
__vector_11                                       .build/obj_custom_parallel_65_via/lib/lufa/LUFA/Drivers/USB/Core/AVR8/USBInterrupt_AVR8.o
                                                  c:/qmk_msys/mingw64/bin/../lib/gcc/avr/12.2.0/../../../../avr/lib/avr5/crtatmega32u4.o
__vector_12                                       .build/obj_custom_parallel_65_via/platforms/avr/suspend.o
                                                  c:/qmk_msys/mingw64/bin/../lib/gcc/avr/12.2.0/../../../../avr/lib/avr5/crtatmega32u4.o
__vector_13                                       c:/qmk_msys/mingw64/bin/../lib/gcc/avr/12.2.0/../../../../avr/lib/avr5/crtatmega32u4.o
__vector_14                                       c:/qmk_msys/mingw64/bin/../lib/gcc/avr/12.2.0/../../../../avr/lib/avr5/crtatmega32u4.o
__vector_15                                       c:/qmk_msys/mingw64/bin/../lib/gcc/avr/12.2.0/../../../../avr/lib/avr5/crtatmega32u4.o
__vector_16                                       c:/qmk_msys/mingw64/bin/../lib/gcc/avr/12.2.0/../../../../avr/lib/avr5/crtatmega32u4.o
__vector_17                                       c:/qmk_msys/mingw64/bin/../lib/gcc/avr/12.2.0/../../../../avr/lib/avr5/crtatmega32u4.o
__vector_18                                       c:/qmk_msys/mingw64/bin/../lib/gcc/avr/12.2.0/../../../../avr/lib/avr5/crtatmega32u4.o
__vector_19                                       c:/qmk_msys/mingw64/bin/../lib/gcc/avr/12.2.0/../../../../avr/lib/avr5/crtatmega32u4.o
__vector_2                                        c:/qmk_msys/mingw64/bin/../lib/gcc/avr/12.2.0/../../../../avr/lib/avr5/crtatmega32u4.o
__vector_20                                       c:/qmk_msys/mingw64/bin/../lib/gcc/avr/12.2.0/../../../../avr/lib/avr5/crtatmega32u4.o
__vector_21                                       .build/obj_custom_parallel_65_via/platforms/avr/timer.o
                                                  c:/qmk_msys/mingw64/bin/../lib/gcc/avr/12.2.0/../../../../avr/lib/avr5/crtatmega32u4.o
__vector_22                                       c:/qmk_msys/mingw64/bin/../lib/gcc/avr/12.2.0/../../../../avr/lib/avr5/crtatmega32u4.o
__vector_23                                       c:/qmk_msys/mingw64/bin/../lib/gcc/avr/12.2.0/../../../../avr/lib/avr5/crtatmega32u4.o
__vector_24                                       c:/qmk_msys/mingw64/bin/../lib/gcc/avr/12.2.0/../../../../avr/lib/avr5/crtatmega32u4.o
__vector_25                                       c:/qmk_msys/mingw64/bin/../lib/gcc/avr/12.2.0/../../../../avr/lib/avr5/crtatmega32u4.o
__vector_26                                       c:/qmk_msys/mingw64/bin/../lib/gcc/avr/12.2.0/../../../../avr/lib/avr5/crtatmega32u4.o
__vector_27                                       c:/qmk_msys/mingw64/bin/../lib/gcc/avr/12.2.0/../../../../avr/lib/avr5/crtatmega32u4.o
__vector_28                                       c:/qmk_msys/mingw64/bin/../lib/gcc/avr/12.2.0/../../../../avr/lib/avr5/crtatmega32u4.o
__vector_29                                       c:/qmk_msys/mingw64/bin/../lib/gcc/avr/12.2.0/../../../../avr/lib/avr5/crtatmega32u4.o
__vector_3                                        c:/qmk_msys/mingw64/bin/../lib/gcc/avr/12.2.0/../../../../avr/lib/avr5/crtatmega32u4.o
__vector_30                                       c:/qmk_msys/mingw64/bin/../lib/gcc/avr/12.2.0/../../../../avr/lib/avr5/crtatmega32u4.o
__vector_31                                       c:/qmk_msys/mingw64/bin/../lib/gcc/avr/12.2.0/../../../../avr/lib/avr5/crtatmega32u4.o
__vector_32                                       c:/qmk_msys/mingw64/bin/../lib/gcc/avr/12.2.0/../../../../avr/lib/avr5/crtatmega32u4.o
__vector_33                                       c:/qmk_msys/mingw64/bin/../lib/gcc/avr/12.2.0/../../../../avr/lib/avr5/crtatmega32u4.o
__vector_34                                       c:/qmk_msys/mingw64/bin/../lib/gcc/avr/12.2.0/../../../../avr/lib/avr5/crtatmega32u4.o
__vector_35                                       c:/qmk_msys/mingw64/bin/../lib/gcc/avr/12.2.0/../../../../avr/lib/avr5/crtatmega32u4.o
__vector_36                                       c:/qmk_msys/mingw64/bin/../lib/gcc/avr/12.2.0/../../../../avr/lib/avr5/crtatmega32u4.o
__vector_37                                       c:/qmk_msys/mingw64/bin/../lib/gcc/avr/12.2.0/../../../../avr/lib/avr5/crtatmega32u4.o
__vector_38                                       c:/qmk_msys/mingw64/bin/../lib/gcc/avr/12.2.0/../../../../avr/lib/avr5/crtatmega32u4.o
__vector_39                                       c:/qmk_msys/mingw64/bin/../lib/gcc/avr/12.2.0/../../../../avr/lib/avr5/crtatmega32u4.o
__vector_4                                        c:/qmk_msys/mingw64/bin/../lib/gcc/avr/12.2.0/../../../../avr/lib/avr5/crtatmega32u4.o
__vector_40                                       c:/qmk_msys/mingw64/bin/../lib/gcc/avr/12.2.0/../../../../avr/lib/avr5/crtatmega32u4.o
__vector_41                                       c:/qmk_msys/mingw64/bin/../lib/gcc/avr/12.2.0/../../../../avr/lib/avr5/crtatmega32u4.o
__vector_42                                       c:/qmk_msys/mingw64/bin/../lib/gcc/avr/12.2.0/../../../../avr/lib/avr5/crtatmega32u4.o
__vector_5                                        c:/qmk_msys/mingw64/bin/../lib/gcc/avr/12.2.0/../../../../avr/lib/avr5/crtatmega32u4.o
__vector_6                                        c:/qmk_msys/mingw64/bin/../lib/gcc/avr/12.2.0/../../../../avr/lib/avr5/crtatmega32u4.o
__vector_7                                        c:/qmk_msys/mingw64/bin/../lib/gcc/avr/12.2.0/../../../../avr/lib/avr5/crtatmega32u4.o
__vector_8                                        c:/qmk_msys/mingw64/bin/../lib/gcc/avr/12.2.0/../../../../avr/lib/avr5/crtatmega32u4.o
__vector_9                                        c:/qmk_msys/mingw64/bin/../lib/gcc/avr/12.2.0/../../../../avr/lib/avr5/crtatmega32u4.o
__vector_default                                  c:/qmk_msys/mingw64/bin/../lib/gcc/avr/12.2.0/../../../../avr/lib/avr5/crtatmega32u4.o
__vectors                                         c:/qmk_msys/mingw64/bin/../lib/gcc/avr/12.2.0/../../../../avr/lib/avr5/crtatmega32u4.o
__xprintf                                         .build/obj_custom_parallel_65_via/platforms/avr/xprintf.o
_div                                              c:/qmk_msys/mingw64/bin/../lib/gcc/avr/12.2.0/avr5\libgcc.a(_divmodhi4.o)
_exit                                             c:/qmk_msys/mingw64/bin/../lib/gcc/avr/12.2.0/avr5\libgcc.a(_exit.o)
action_exec                                       .build/obj_custom_parallel_65_via/quantum/action.o
                                                  .build/obj_custom_parallel_65_via/quantum/keyboard.o
action_for_key                                    .build/obj_custom_parallel_65_via/quantum/keymap_common.o
                                                  .build/obj_custom_parallel_65_via/quantum/action_layer.o
action_for_keycode                                .build/obj_custom_parallel_65_via/quantum/keymap_common.o
action_tapping_process                            .build/obj_custom_parallel_65_via/quantum/action_tapping.o
                                                  .build/obj_custom_parallel_65_via/quantum/action.o
add_key                                           .build/obj_custom_parallel_65_via/quantum/action_util.o
add_key_byte                                      .build/obj_custom_parallel_65_via/protocol/report.o
add_key_to_report                                 .build/obj_custom_parallel_65_via/protocol/report.o
                                                  .build/obj_custom_parallel_65_via/quantum/process_keycode/process_grave_esc.o
                                                  .build/obj_custom_parallel_65_via/quantum/action_util.o
                                                  .build/obj_custom_parallel_65_via/quantum/action.o
add_mods                                          .build/obj_custom_parallel_65_via/quantum/action_util.o
                                                  .build/obj_custom_parallel_65_via/quantum/action.o
add_oneshot_locked_mods                           .build/obj_custom_parallel_65_via/quantum/action_util.o
add_oneshot_mods                                  .build/obj_custom_parallel_65_via/quantum/action_util.o
                                                  .build/obj_custom_parallel_65_via/quantum/action.o
add_weak_mods                                     .build/obj_custom_parallel_65_via/quantum/action_util.o
                                                  .build/obj_custom_parallel_65_via/quantum/action.o
ascii_to_altgr_lut                                .build/obj_custom_parallel_65_via/quantum/send_string/send_string.o
ascii_to_dead_lut                                 .build/obj_custom_parallel_65_via/quantum/send_string/send_string.o
ascii_to_keycode_lut                              .build/obj_custom_parallel_65_via/quantum/send_string/send_string.o
ascii_to_shift_lut                                .build/obj_custom_parallel_65_via/quantum/send_string/send_string.o
biton                                             .build/obj_custom_parallel_65_via/quantum/bitwise.o
biton16                                           .build/obj_custom_parallel_65_via/quantum/bitwise.o
biton32                                           .build/obj_custom_parallel_65_via/quantum/bitwise.o
bitpop                                            .build/obj_custom_parallel_65_via/quantum/bitwise.o
                                                  .build/obj_custom_parallel_65_via/quantum/action_util.o
bitpop16                                          .build/obj_custom_parallel_65_via/quantum/bitwise.o
bitpop32                                          .build/obj_custom_parallel_65_via/quantum/bitwise.o
bitrev                                            .build/obj_custom_parallel_65_via/quantum/bitwise.o
bitrev16                                          .build/obj_custom_parallel_65_via/quantum/bitwise.o
bitrev32                                          .build/obj_custom_parallel_65_via/quantum/bitwise.o
bootloader_jump                                   .build/obj_custom_parallel_65_via/platforms/avr/bootloaders/dfu.o
                                                  .build/obj_custom_parallel_65_via/quantum/bootmagic/bootmagic.o
                                                  .build/obj_custom_parallel_65_via/quantum/quantum.o
bootloader_jump_after_watchdog_reset              .build/obj_custom_parallel_65_via/platforms/avr/bootloaders/dfu.o
bootmagic                                         .build/obj_custom_parallel_65_via/quantum/bootmagic/bootmagic.o
                                                  .build/obj_custom_parallel_65_via/quantum/keyboard.o
bootmagic_reset_eeprom                            .build/obj_custom_parallel_65_via/quantum/bootmagic/bootmagic.o
bootmagic_scan                                    .build/obj_custom_parallel_65_via/quantum/bootmagic/bootmagic.o
bootmagic_should_reset                            .build/obj_custom_parallel_65_via/quantum/bootmagic/bootmagic.o
clear_keyboard                                    .build/obj_custom_parallel_65_via/quantum/action.o
                                                  .build/obj_custom_parallel_65_via/lufa.o
                                                  .build/obj_custom_parallel_65_via/platforms/avr/suspend.o
                                                  .build/obj_custom_parallel_65_via/quantum/process_keycode/process_magic.o
                                                  .build/obj_custom_parallel_65_via/quantum/action_tapping.o
                                                  .build/obj_custom_parallel_65_via/quantum/quantum.o
clear_keyboard_but_mods                           .build/obj_custom_parallel_65_via/quantum/action.o
clear_keyboard_but_mods_and_keys                  .build/obj_custom_parallel_65_via/quantum/action.o
clear_keys                                        .build/obj_custom_parallel_65_via/quantum/action_util.o
clear_keys_from_report                            .build/obj_custom_parallel_65_via/protocol/report.o
                                                  .build/obj_custom_parallel_65_via/quantum/action_util.o
                                                  .build/obj_custom_parallel_65_via/quantum/action.o
clear_mods                                        .build/obj_custom_parallel_65_via/quantum/action_util.o
                                                  .build/obj_custom_parallel_65_via/quantum/action.o
clear_oneshot_layer_state                         .build/obj_custom_parallel_65_via/quantum/action_util.o
                                                  .build/obj_custom_parallel_65_via/quantum/action.o
clear_oneshot_locked_mods                         .build/obj_custom_parallel_65_via/quantum/action_util.o
clear_oneshot_mods                                .build/obj_custom_parallel_65_via/quantum/action_util.o
clear_weak_mods                                   .build/obj_custom_parallel_65_via/quantum/action_util.o
                                                  .build/obj_custom_parallel_65_via/quantum/action.o
debounce                                          .build/obj_custom_parallel_65_via/quantum/debounce/sym_defer_g.o
                                                  .build/obj_custom_parallel_65_via/quantum/matrix.o
                                                  .build/obj_custom_parallel_65_via/quantum/matrix_common.o
debounce_free                                     .build/obj_custom_parallel_65_via/quantum/debounce/sym_defer_g.o
debounce_init                                     .build/obj_custom_parallel_65_via/quantum/debounce/sym_defer_g.o
                                                  .build/obj_custom_parallel_65_via/quantum/matrix.o
                                                  .build/obj_custom_parallel_65_via/quantum/matrix_common.o
debug_action                                      .build/obj_custom_parallel_65_via/quantum/action.o
debug_config                                      .build/obj_custom_parallel_65_via/quantum/logging/debug.o
                                                  .build/obj_custom_parallel_65_via/quantum/keyboard.o
debug_event                                       .build/obj_custom_parallel_65_via/quantum/action.o
                                                  .build/obj_custom_parallel_65_via/quantum/action_tapping.o
debug_record                                      .build/obj_custom_parallel_65_via/quantum/action.o
                                                  .build/obj_custom_parallel_65_via/quantum/action_tapping.o
default_layer_and                                 .build/obj_custom_parallel_65_via/quantum/action_layer.o
                                                  .build/obj_custom_parallel_65_via/quantum/action.o
default_layer_debug                               .build/obj_custom_parallel_65_via/quantum/action_layer.o
                                                  .build/obj_custom_parallel_65_via/quantum/action.o
default_layer_or                                  .build/obj_custom_parallel_65_via/quantum/action_layer.o
                                                  .build/obj_custom_parallel_65_via/quantum/action.o
default_layer_set                                 .build/obj_custom_parallel_65_via/quantum/action_layer.o
                                                  .build/obj_custom_parallel_65_via/quantum/keyboard.o
                                                  .build/obj_custom_parallel_65_via/quantum/action.o
                                                  .build/obj_custom_parallel_65_via/quantum/quantum.o
default_layer_state                               .build/obj_custom_parallel_65_via/quantum/action_layer.o
                                                  .build/obj_custom_parallel_65_via/quantum/eeconfig.o
default_layer_state_set_kb                        .build/obj_custom_parallel_65_via/quantum/action_layer.o
default_layer_state_set_user                      .build/obj_custom_parallel_65_via/quantum/action_layer.o
default_layer_xor                                 .build/obj_custom_parallel_65_via/quantum/action_layer.o
                                                  .build/obj_custom_parallel_65_via/quantum/action.o
del_key                                           .build/obj_custom_parallel_65_via/quantum/action_util.o
del_key_byte                                      .build/obj_custom_parallel_65_via/protocol/report.o
del_key_from_report                               .build/obj_custom_parallel_65_via/protocol/report.o
                                                  .build/obj_custom_parallel_65_via/quantum/process_keycode/process_grave_esc.o
                                                  .build/obj_custom_parallel_65_via/quantum/action_util.o
                                                  .build/obj_custom_parallel_65_via/quantum/action.o
del_mods                                          .build/obj_custom_parallel_65_via/quantum/action_util.o
                                                  .build/obj_custom_parallel_65_via/quantum/action.o
del_oneshot_locked_mods                           .build/obj_custom_parallel_65_via/quantum/action_util.o
                                                  .build/obj_custom_parallel_65_via/quantum/action.o
del_oneshot_mods                                  .build/obj_custom_parallel_65_via/quantum/action_util.o
                                                  .build/obj_custom_parallel_65_via/quantum/action.o
del_weak_mods                                     .build/obj_custom_parallel_65_via/quantum/action_util.o
                                                  .build/obj_custom_parallel_65_via/quantum/action.o
disable_action_cache                              .build/obj_custom_parallel_65_via/quantum/action.o
                                                  .build/obj_custom_parallel_65_via/quantum/action_layer.o
                                                  .build/obj_custom_parallel_65_via/quantum/quantum.o
do_code16                                         .build/obj_custom_parallel_65_via/quantum/quantum.o
dynamic_keymap_get_buffer                         .build/obj_custom_parallel_65_via/quantum/dynamic_keymap.o
                                                  .build/obj_custom_parallel_65_via/quantum/via.o
dynamic_keymap_get_keycode                        .build/obj_custom_parallel_65_via/quantum/dynamic_keymap.o
                                                  .build/obj_custom_parallel_65_via/quantum/via.o
dynamic_keymap_get_layer_count                    .build/obj_custom_parallel_65_via/quantum/dynamic_keymap.o
                                                  .build/obj_custom_parallel_65_via/quantum/via.o
dynamic_keymap_key_to_eeprom_address              .build/obj_custom_parallel_65_via/quantum/dynamic_keymap.o
dynamic_keymap_macro_get_buffer                   .build/obj_custom_parallel_65_via/quantum/dynamic_keymap.o
                                                  .build/obj_custom_parallel_65_via/quantum/via.o
dynamic_keymap_macro_get_buffer_size              .build/obj_custom_parallel_65_via/quantum/dynamic_keymap.o
                                                  .build/obj_custom_parallel_65_via/quantum/via.o
dynamic_keymap_macro_get_count                    .build/obj_custom_parallel_65_via/quantum/dynamic_keymap.o
                                                  .build/obj_custom_parallel_65_via/quantum/via.o
dynamic_keymap_macro_reset                        .build/obj_custom_parallel_65_via/quantum/dynamic_keymap.o
                                                  .build/obj_custom_parallel_65_via/quantum/via.o
dynamic_keymap_macro_send                         .build/obj_custom_parallel_65_via/quantum/dynamic_keymap.o
                                                  .build/obj_custom_parallel_65_via/quantum/via.o
dynamic_keymap_macro_set_buffer                   .build/obj_custom_parallel_65_via/quantum/dynamic_keymap.o
                                                  .build/obj_custom_parallel_65_via/quantum/via.o
dynamic_keymap_reset                              .build/obj_custom_parallel_65_via/quantum/dynamic_keymap.o
                                                  .build/obj_custom_parallel_65_via/quantum/via.o
dynamic_keymap_set_buffer                         .build/obj_custom_parallel_65_via/quantum/dynamic_keymap.o
                                                  .build/obj_custom_parallel_65_via/quantum/via.o
dynamic_keymap_set_keycode                        .build/obj_custom_parallel_65_via/quantum/dynamic_keymap.o
                                                  .build/obj_custom_parallel_65_via/quantum/via.o
eeconfig_check_valid_rgb_matrix                   .build/obj_custom_parallel_65_via/quantum/rgb_matrix/rgb_matrix.o
eeconfig_debug_rgb_matrix                         .build/obj_custom_parallel_65_via/quantum/rgb_matrix/rgb_matrix.o
eeconfig_disable                                  .build/obj_custom_parallel_65_via/quantum/eeconfig.o
                                                  .build/obj_custom_parallel_65_via/quantum/bootmagic/bootmagic.o
                                                  .build/obj_custom_parallel_65_via/quantum/quantum.o
eeconfig_enable                                   .build/obj_custom_parallel_65_via/quantum/eeconfig.o
eeconfig_init                                     .build/obj_custom_parallel_65_via/quantum/eeconfig.o
                                                  .build/obj_custom_parallel_65_via/quantum/keyboard.o
eeconfig_init_kb                                  .build/obj_custom_parallel_65_via/quantum/eeconfig.o
eeconfig_init_quantum                             .build/obj_custom_parallel_65_via/quantum/eeconfig.o
eeconfig_init_user                                .build/obj_custom_parallel_65_via/quantum/eeconfig.o
eeconfig_init_via                                 .build/obj_custom_parallel_65_via/quantum/via.o
                                                  .build/obj_custom_parallel_65_via/quantum/eeconfig.o
eeconfig_is_disabled                              .build/obj_custom_parallel_65_via/quantum/eeconfig.o
eeconfig_is_enabled                               .build/obj_custom_parallel_65_via/quantum/eeconfig.o
                                                  .build/obj_custom_parallel_65_via/quantum/keyboard.o
eeconfig_post_flush_rgb_matrix                    .build/obj_custom_parallel_65_via/quantum/rgb_matrix/rgb_matrix.o
eeconfig_read_audio                               .build/obj_custom_parallel_65_via/quantum/eeconfig.o
eeconfig_read_debug                               .build/obj_custom_parallel_65_via/quantum/eeconfig.o
                                                  .build/obj_custom_parallel_65_via/quantum/keyboard.o
eeconfig_read_default_layer                       .build/obj_custom_parallel_65_via/quantum/eeconfig.o
                                                  .build/obj_custom_parallel_65_via/quantum/keyboard.o
eeconfig_read_handedness                          .build/obj_custom_parallel_65_via/quantum/eeconfig.o
eeconfig_read_haptic                              .build/obj_custom_parallel_65_via/quantum/eeconfig.o
eeconfig_read_kb                                  .build/obj_custom_parallel_65_via/quantum/eeconfig.o
eeconfig_read_keymap                              .build/obj_custom_parallel_65_via/quantum/eeconfig.o
                                                  .build/obj_custom_parallel_65_via/quantum/process_keycode/process_magic.o
                                                  .build/obj_custom_parallel_65_via/quantum/keyboard.o
eeconfig_read_user                                .build/obj_custom_parallel_65_via/quantum/eeconfig.o
eeconfig_update_audio                             .build/obj_custom_parallel_65_via/quantum/eeconfig.o
eeconfig_update_debug                             .build/obj_custom_parallel_65_via/quantum/eeconfig.o
eeconfig_update_default_layer                     .build/obj_custom_parallel_65_via/quantum/eeconfig.o
                                                  .build/obj_custom_parallel_65_via/quantum/quantum.o
eeconfig_update_handedness                        .build/obj_custom_parallel_65_via/quantum/eeconfig.o
                                                  .build/obj_custom_parallel_65_via/quantum/process_keycode/process_magic.o
eeconfig_update_haptic                            .build/obj_custom_parallel_65_via/quantum/eeconfig.o
eeconfig_update_kb                                .build/obj_custom_parallel_65_via/quantum/eeconfig.o
eeconfig_update_keymap                            .build/obj_custom_parallel_65_via/quantum/eeconfig.o
                                                  .build/obj_custom_parallel_65_via/quantum/process_keycode/process_magic.o
                                                  .build/obj_custom_parallel_65_via/quantum/action_util.o
eeconfig_update_rgb_matrix                        .build/obj_custom_parallel_65_via/quantum/rgb_matrix/rgb_matrix.o
                                                  .build/obj_custom_parallel_65_via/quantum/via.o
eeconfig_update_rgb_matrix_default                .build/obj_custom_parallel_65_via/quantum/rgb_matrix/rgb_matrix.o
eeconfig_update_user                              .build/obj_custom_parallel_65_via/quantum/eeconfig.o
eeprom_read_block                                 c:/qmk_msys/mingw64/bin/../lib/gcc/avr/12.2.0/../../../../avr/lib/avr5\libatmega32u4.a(eerd_block.o)
                                                  .build/obj_custom_parallel_65_via/quantum/rgb_matrix/rgb_matrix.o
eeprom_read_blraw                                 c:/qmk_msys/mingw64/bin/../lib/gcc/avr/12.2.0/../../../../avr/lib/avr5\libatmega32u4.a(eerd_block.o)
                                                  c:/qmk_msys/mingw64/bin/../lib/gcc/avr/12.2.0/../../../../avr/lib/avr5\libatmega32u4.a(eerd_word.o)
                                                  c:/qmk_msys/mingw64/bin/../lib/gcc/avr/12.2.0/../../../../avr/lib/avr5\libatmega32u4.a(eerd_dword.o)
eeprom_read_byte                                  c:/qmk_msys/mingw64/bin/../lib/gcc/avr/12.2.0/../../../../avr/lib/avr5\libatmega32u4.a(eerd_byte.o)
                                                  .build/obj_custom_parallel_65_via/lib/lufa/LUFA/Drivers/USB/Core/AVR8/EndpointStream_AVR8.o
                                                  .build/obj_custom_parallel_65_via/quantum/via.o
                                                  .build/obj_custom_parallel_65_via/quantum/dynamic_keymap.o
                                                  .build/obj_custom_parallel_65_via/quantum/eeconfig.o
eeprom_read_dword                                 c:/qmk_msys/mingw64/bin/../lib/gcc/avr/12.2.0/../../../../avr/lib/avr5\libatmega32u4.a(eerd_dword.o)
                                                  .build/obj_custom_parallel_65_via/quantum/eeconfig.o
eeprom_read_float                                 c:/qmk_msys/mingw64/bin/../lib/gcc/avr/12.2.0/../../../../avr/lib/avr5\libatmega32u4.a(eerd_dword.o)
eeprom_read_word                                  c:/qmk_msys/mingw64/bin/../lib/gcc/avr/12.2.0/../../../../avr/lib/avr5\libatmega32u4.a(eerd_word.o)
                                                  .build/obj_custom_parallel_65_via/quantum/eeconfig.o
eeprom_update_block                               c:/qmk_msys/mingw64/bin/../lib/gcc/avr/12.2.0/../../../../avr/lib/avr5\libatmega32u4.a(eeupd_block.o)
                                                  .build/obj_custom_parallel_65_via/quantum/rgb_matrix/rgb_matrix.o
                                                  .build/obj_custom_parallel_65_via/quantum/eeconfig.o
eeprom_update_byte                                c:/qmk_msys/mingw64/bin/../lib/gcc/avr/12.2.0/../../../../avr/lib/avr5\libatmega32u4.a(eeupd_byte.o)
                                                  c:/qmk_msys/mingw64/bin/../lib/gcc/avr/12.2.0/../../../../avr/lib/avr5\libatmega32u4.a(eeupd_word.o)
                                                  c:/qmk_msys/mingw64/bin/../lib/gcc/avr/12.2.0/../../../../avr/lib/avr5\libatmega32u4.a(eeupd_dword.o)
                                                  .build/obj_custom_parallel_65_via/lib/lufa/LUFA/Drivers/USB/Core/AVR8/EndpointStream_AVR8.o
                                                  .build/obj_custom_parallel_65_via/quantum/via.o
                                                  .build/obj_custom_parallel_65_via/quantum/dynamic_keymap.o
                                                  .build/obj_custom_parallel_65_via/quantum/eeconfig.o
eeprom_update_dword                               c:/qmk_msys/mingw64/bin/../lib/gcc/avr/12.2.0/../../../../avr/lib/avr5\libatmega32u4.a(eeupd_dword.o)
                                                  .build/obj_custom_parallel_65_via/quantum/eeconfig.o
eeprom_update_float                               c:/qmk_msys/mingw64/bin/../lib/gcc/avr/12.2.0/../../../../avr/lib/avr5\libatmega32u4.a(eeupd_dword.o)
eeprom_update_r18                                 c:/qmk_msys/mingw64/bin/../lib/gcc/avr/12.2.0/../../../../avr/lib/avr5\libatmega32u4.a(eeupd_byte.o)
                                                  c:/qmk_msys/mingw64/bin/../lib/gcc/avr/12.2.0/../../../../avr/lib/avr5\libatmega32u4.a(eeupd_word.o)
                                                  c:/qmk_msys/mingw64/bin/../lib/gcc/avr/12.2.0/../../../../avr/lib/avr5\libatmega32u4.a(eeupd_dword.o)
                                                  c:/qmk_msys/mingw64/bin/../lib/gcc/avr/12.2.0/../../../../avr/lib/avr5\libatmega32u4.a(eeupd_block.o)
eeprom_update_word                                c:/qmk_msys/mingw64/bin/../lib/gcc/avr/12.2.0/../../../../avr/lib/avr5\libatmega32u4.a(eeupd_word.o)
                                                  .build/obj_custom_parallel_65_via/quantum/eeconfig.o
effect_runner_dx_dy                               .build/obj_custom_parallel_65_via/quantum/rgb_matrix/rgb_matrix.o
effect_runner_dx_dy_dist                          .build/obj_custom_parallel_65_via/quantum/rgb_matrix/rgb_matrix.o
effect_runner_i                                   .build/obj_custom_parallel_65_via/quantum/rgb_matrix/rgb_matrix.o
effect_runner_reactive                            .build/obj_custom_parallel_65_via/quantum/rgb_matrix/rgb_matrix.o
effect_runner_reactive_splash                     .build/obj_custom_parallel_65_via/quantum/rgb_matrix/rgb_matrix.o
effect_runner_sin_cos_i                           .build/obj_custom_parallel_65_via/quantum/rgb_matrix/rgb_matrix.o
exit                                              c:/qmk_msys/mingw64/bin/../lib/gcc/avr/12.2.0/avr5\libgcc.a(_exit.o)
                                                  c:/qmk_msys/mingw64/bin/../lib/gcc/avr/12.2.0/../../../../avr/lib/avr5/crtatmega32u4.o
extract_mod_bits                                  .build/obj_custom_parallel_65_via/quantum/quantum.o
g_last_hit_tracker                                .build/obj_custom_parallel_65_via/quantum/rgb_matrix/rgb_matrix.o
g_led_config                                      .build/obj_custom_parallel_65_via/.build/obj_custom_parallel_65_via/src/default_keyboard.o
                                                  .build/obj_custom_parallel_65_via/quantum/rgb_matrix/rgb_matrix.o
g_rgb_timer                                       .build/obj_custom_parallel_65_via/quantum/rgb_matrix/rgb_matrix.o
get_event_keycode                                 .build/obj_custom_parallel_65_via/quantum/quantum.o
get_first_key                                     .build/obj_custom_parallel_65_via/protocol/report.o
get_hardware_id                                   .build/obj_custom_parallel_65_via/platforms/avr/hardware_id.o
get_mods                                          .build/obj_custom_parallel_65_via/quantum/action_util.o
                                                  .build/obj_custom_parallel_65_via/quantum/process_keycode/process_grave_esc.o
                                                  .build/obj_custom_parallel_65_via/quantum/process_keycode/process_rgb.o
get_numeric_str                                   .build/obj_custom_parallel_65_via/quantum/quantum.o
get_oneshot_layer                                 .build/obj_custom_parallel_65_via/quantum/action_util.o
                                                  .build/obj_custom_parallel_65_via/quantum/action.o
get_oneshot_layer_state                           .build/obj_custom_parallel_65_via/quantum/action_util.o
                                                  .build/obj_custom_parallel_65_via/quantum/action.o
get_oneshot_locked_mods                           .build/obj_custom_parallel_65_via/quantum/action_util.o
get_oneshot_mods                                  .build/obj_custom_parallel_65_via/quantum/action_util.o
get_record_keycode                                .build/obj_custom_parallel_65_via/quantum/quantum.o
get_tri_layer_adjust_layer                        .build/obj_custom_parallel_65_via/quantum/tri_layer.o
                                                  .build/obj_custom_parallel_65_via/quantum/process_keycode/process_tri_layer.o
get_tri_layer_lower_layer                         .build/obj_custom_parallel_65_via/quantum/tri_layer.o
                                                  .build/obj_custom_parallel_65_via/quantum/process_keycode/process_tri_layer.o
get_tri_layer_upper_layer                         .build/obj_custom_parallel_65_via/quantum/tri_layer.o
                                                  .build/obj_custom_parallel_65_via/quantum/process_keycode/process_tri_layer.o
get_u16_str                                       .build/obj_custom_parallel_65_via/quantum/quantum.o
get_u8_str                                        .build/obj_custom_parallel_65_via/quantum/quantum.o
get_usb_descriptor                                .build/obj_custom_parallel_65_via/usb_descriptor.o
                                                  .build/obj_custom_parallel_65_via/lufa.o
get_weak_mods                                     .build/obj_custom_parallel_65_via/quantum/action_util.o
has_anykey                                        .build/obj_custom_parallel_65_via/protocol/report.o
                                                  .build/obj_custom_parallel_65_via/quantum/action_util.o
has_anymod                                        .build/obj_custom_parallel_65_via/quantum/action_util.o
has_mouse_report_changed                          .build/obj_custom_parallel_65_via/protocol/report.o
                                                  .build/obj_custom_parallel_65_via/quantum/mousekey.o
has_oneshot_mods_timed_out                        .build/obj_custom_parallel_65_via/quantum/action_util.o
host_consumer_send                                .build/obj_custom_parallel_65_via/protocol/host.o
                                                  .build/obj_custom_parallel_65_via/quantum/action.o
host_get_driver                                   .build/obj_custom_parallel_65_via/protocol/host.o
host_keyboard_led_state                           .build/obj_custom_parallel_65_via/protocol/host.o
                                                  .build/obj_custom_parallel_65_via/quantum/action.o
host_keyboard_leds                                .build/obj_custom_parallel_65_via/protocol/host.o
                                                  .build/obj_custom_parallel_65_via/quantum/action.o
                                                  .build/obj_custom_parallel_65_via/quantum/led.o
host_keyboard_send                                .build/obj_custom_parallel_65_via/protocol/host.o
                                                  .build/obj_custom_parallel_65_via/quantum/action_util.o
host_last_consumer_usage                          .build/obj_custom_parallel_65_via/protocol/host.o
host_last_system_usage                            .build/obj_custom_parallel_65_via/protocol/host.o
host_mouse_send                                   .build/obj_custom_parallel_65_via/protocol/host.o
                                                  .build/obj_custom_parallel_65_via/quantum/mousekey.o
host_nkro_send                                    .build/obj_custom_parallel_65_via/protocol/host.o
host_set_driver                                   .build/obj_custom_parallel_65_via/protocol/host.o
                                                  .build/obj_custom_parallel_65_via/lufa.o
host_system_send                                  .build/obj_custom_parallel_65_via/protocol/host.o
                                                  .build/obj_custom_parallel_65_via/quantum/action.o
housekeeping_task                                 .build/obj_custom_parallel_65_via/quantum/keyboard.o
                                                  .build/obj_custom_parallel_65_via/quantum/main.o
housekeeping_task_kb                              .build/obj_custom_parallel_65_via/quantum/keyboard.o
housekeeping_task_user                            .build/obj_custom_parallel_65_via/quantum/keyboard.o
hsv_to_rgb                                        .build/obj_custom_parallel_65_via/quantum/color.o
                                                  .build/obj_custom_parallel_65_via/quantum/rgb_matrix/rgb_matrix.o
hsv_to_rgb_impl                                   .build/obj_custom_parallel_65_via/quantum/color.o
hsv_to_rgb_nocie                                  .build/obj_custom_parallel_65_via/quantum/color.o
is_key_pressed                                    .build/obj_custom_parallel_65_via/protocol/report.o
                                                  .build/obj_custom_parallel_65_via/quantum/action.o
is_keyboard_left                                  .build/obj_custom_parallel_65_via/quantum/keyboard.o
is_keyboard_master                                .build/obj_custom_parallel_65_via/quantum/keyboard.o
                                                  .build/obj_custom_parallel_65_via/quantum/rgb_matrix/rgb_matrix.o
is_oneshot_enabled                                .build/obj_custom_parallel_65_via/quantum/action_util.o
is_oneshot_layer_active                           .build/obj_custom_parallel_65_via/quantum/action_util.o
                                                  .build/obj_custom_parallel_65_via/quantum/action.o
is_tap_action                                     .build/obj_custom_parallel_65_via/quantum/action.o
is_tap_record                                     .build/obj_custom_parallel_65_via/quantum/action.o
                                                  .build/obj_custom_parallel_65_via/quantum/action_tapping.o
k_rgb_matrix_center                               .build/obj_custom_parallel_65_via/quantum/rgb_matrix/rgb_matrix.o
keyboard_idle                                     .build/obj_custom_parallel_65_via/lufa.o
keyboard_init                                     .build/obj_custom_parallel_65_via/quantum/keyboard.o
                                                  .build/obj_custom_parallel_65_via/quantum/main.o
keyboard_post_init_kb                             .build/obj_custom_parallel_65_via/quantum/keyboard.o
keyboard_post_init_user                           .build/obj_custom_parallel_65_via/quantum/keyboard.o
keyboard_pre_init_kb                              .build/obj_custom_parallel_65_via/quantum/keyboard.o
keyboard_pre_init_user                            .build/obj_custom_parallel_65_via/quantum/keyboard.o
keyboard_protocol                                 .build/obj_custom_parallel_65_via/lufa.o
keyboard_report                                   .build/obj_custom_parallel_65_via/quantum/action_util.o
                                                  .build/obj_custom_parallel_65_via/protocol/report.o
keyboard_setup                                    .build/obj_custom_parallel_65_via/quantum/keyboard.o
                                                  .build/obj_custom_parallel_65_via/quantum/main.o
keyboard_task                                     .build/obj_custom_parallel_65_via/quantum/keyboard.o
                                                  .build/obj_custom_parallel_65_via/quantum/main.o
keycode_at_keymap_location                        .build/obj_custom_parallel_65_via/quantum/dynamic_keymap.o
                                                  .build/obj_custom_parallel_65_via/quantum/keymap_introspection.o
                                                  .build/obj_custom_parallel_65_via/quantum/keymap_common.o
keycode_at_keymap_location_raw                    .build/obj_custom_parallel_65_via/quantum/keymap_introspection.o
                                                  .build/obj_custom_parallel_65_via/quantum/dynamic_keymap.o
keycode_config                                    .build/obj_custom_parallel_65_via/quantum/keycode_config.o
                                                  .build/obj_custom_parallel_65_via/quantum/keymap_common.o
keymap_config                                     .build/obj_custom_parallel_65_via/quantum/keycode_config.o
                                                  .build/obj_custom_parallel_65_via/quantum/process_keycode/process_magic.o
                                                  .build/obj_custom_parallel_65_via/quantum/keyboard.o
                                                  .build/obj_custom_parallel_65_via/quantum/action_util.o
                                                  .build/obj_custom_parallel_65_via/quantum/action.o
keymap_key_to_keycode                             .build/obj_custom_parallel_65_via/quantum/keymap_common.o
                                                  .build/obj_custom_parallel_65_via/quantum/quantum.o
keymap_layer_count                                .build/obj_custom_parallel_65_via/quantum/keymap_introspection.o
keymap_layer_count_raw                            .build/obj_custom_parallel_65_via/quantum/keymap_introspection.o
keymaps                                           .build/obj_custom_parallel_65_via/quantum/keymap_introspection.o
last_encoder_activity_elapsed                     .build/obj_custom_parallel_65_via/quantum/keyboard.o
last_encoder_activity_time                        .build/obj_custom_parallel_65_via/quantum/keyboard.o
last_encoder_activity_trigger                     .build/obj_custom_parallel_65_via/quantum/keyboard.o
last_input_activity_elapsed                       .build/obj_custom_parallel_65_via/quantum/keyboard.o
last_input_activity_time                          .build/obj_custom_parallel_65_via/quantum/keyboard.o
last_led_activity_elapsed                         .build/obj_custom_parallel_65_via/quantum/led.o
last_led_activity_time                            .build/obj_custom_parallel_65_via/quantum/led.o
last_matrix_activity_elapsed                      .build/obj_custom_parallel_65_via/quantum/keyboard.o
last_matrix_activity_time                         .build/obj_custom_parallel_65_via/quantum/keyboard.o
last_matrix_activity_trigger                      .build/obj_custom_parallel_65_via/quantum/keyboard.o
last_pointing_device_activity_elapsed             .build/obj_custom_parallel_65_via/quantum/keyboard.o
last_pointing_device_activity_time                .build/obj_custom_parallel_65_via/quantum/keyboard.o
last_pointing_device_activity_trigger             .build/obj_custom_parallel_65_via/quantum/keyboard.o
layer_and                                         .build/obj_custom_parallel_65_via/quantum/action_layer.o
                                                  .build/obj_custom_parallel_65_via/quantum/action.o
layer_clear                                       .build/obj_custom_parallel_65_via/quantum/action_layer.o
                                                  .build/obj_custom_parallel_65_via/quantum/action.o
layer_debug                                       .build/obj_custom_parallel_65_via/quantum/action_layer.o
                                                  .build/obj_custom_parallel_65_via/quantum/action.o
layer_invert                                      .build/obj_custom_parallel_65_via/quantum/action_layer.o
                                                  .build/obj_custom_parallel_65_via/quantum/action.o
layer_move                                        .build/obj_custom_parallel_65_via/quantum/action_layer.o
                                                  .build/obj_custom_parallel_65_via/quantum/action.o
layer_off                                         .build/obj_custom_parallel_65_via/quantum/action_layer.o
                                                  .build/obj_custom_parallel_65_via/quantum/process_keycode/process_tri_layer.o
                                                  .build/obj_custom_parallel_65_via/quantum/action_util.o
                                                  .build/obj_custom_parallel_65_via/quantum/action.o
layer_on                                          .build/obj_custom_parallel_65_via/quantum/action_layer.o
                                                  .build/obj_custom_parallel_65_via/quantum/process_keycode/process_tri_layer.o
                                                  .build/obj_custom_parallel_65_via/quantum/action_util.o
                                                  .build/obj_custom_parallel_65_via/quantum/action.o
layer_or                                          .build/obj_custom_parallel_65_via/quantum/action_layer.o
                                                  .build/obj_custom_parallel_65_via/quantum/action.o
layer_state                                       .build/obj_custom_parallel_65_via/quantum/action_layer.o
                                                  .build/obj_custom_parallel_65_via/quantum/keyboard.o
layer_state_cmp                                   .build/obj_custom_parallel_65_via/quantum/action_layer.o
layer_state_is                                    .build/obj_custom_parallel_65_via/quantum/action_layer.o
layer_state_set                                   .build/obj_custom_parallel_65_via/quantum/action_layer.o
                                                  .build/obj_custom_parallel_65_via/quantum/action.o
layer_state_set_kb                                .build/obj_custom_parallel_65_via/quantum/action_layer.o
                                                  .build/obj_custom_parallel_65_via/quantum/keyboard.o
layer_state_set_user                              .build/obj_custom_parallel_65_via/quantum/action_layer.o
layer_switch_get_action                           .build/obj_custom_parallel_65_via/quantum/action_layer.o
                                                  .build/obj_custom_parallel_65_via/quantum/action_tapping.o
                                                  .build/obj_custom_parallel_65_via/quantum/action.o
layer_switch_get_layer                            .build/obj_custom_parallel_65_via/quantum/action_layer.o
                                                  .build/obj_custom_parallel_65_via/quantum/quantum.o
layer_xor                                         .build/obj_custom_parallel_65_via/quantum/action_layer.o
                                                  .build/obj_custom_parallel_65_via/quantum/action.o
led_init_ports                                    .build/obj_custom_parallel_65_via/quantum/led.o
                                                  .build/obj_custom_parallel_65_via/quantum/keyboard.o
led_set                                           .build/obj_custom_parallel_65_via/quantum/led.o
                                                  .build/obj_custom_parallel_65_via/quantum/action.o
led_suspend                                       .build/obj_custom_parallel_65_via/quantum/led.o
                                                  .build/obj_custom_parallel_65_via/quantum/quantum.o
led_task                                          .build/obj_custom_parallel_65_via/quantum/led.o
                                                  .build/obj_custom_parallel_65_via/quantum/keyboard.o
led_update_kb                                     .build/obj_custom_parallel_65_via/quantum/led.o
led_update_ports                                  .build/obj_custom_parallel_65_via/quantum/led.o
led_update_user                                   .build/obj_custom_parallel_65_via/quantum/led.o
led_wakeup                                        .build/obj_custom_parallel_65_via/quantum/led.o
                                                  .build/obj_custom_parallel_65_via/quantum/quantum.o
lufa_driver                                       .build/obj_custom_parallel_65_via/lufa.o
main                                              .build/obj_custom_parallel_65_via/quantum/main.o
                                                  c:/qmk_msys/mingw64/bin/../lib/gcc/avr/12.2.0/../../../../avr/lib/avr5/crtatmega32u4.o
matrix                                            .build/obj_custom_parallel_65_via/quantum/matrix_common.o
                                                  .build/obj_custom_parallel_65_via/quantum/matrix.o
matrix_can_read                                   .build/obj_custom_parallel_65_via/quantum/keyboard.o
matrix_cols                                       .build/obj_custom_parallel_65_via/quantum/matrix_common.o
matrix_get_row                                    .build/obj_custom_parallel_65_via/quantum/matrix_common.o
                                                  .build/obj_custom_parallel_65_via/platforms/suspend.o
                                                  .build/obj_custom_parallel_65_via/quantum/via.o
                                                  .build/obj_custom_parallel_65_via/quantum/bootmagic/bootmagic.o
                                                  .build/obj_custom_parallel_65_via/quantum/keyboard.o
matrix_init                                       .build/obj_custom_parallel_65_via/quantum/matrix.o
                                                  .build/obj_custom_parallel_65_via/quantum/matrix_common.o
                                                  .build/obj_custom_parallel_65_via/quantum/keyboard.o
matrix_init_custom                                .build/obj_custom_parallel_65_via/quantum/matrix_common.o
matrix_init_kb                                    .build/obj_custom_parallel_65_via/quantum/matrix_common.o
                                                  .build/obj_custom_parallel_65_via/quantum/matrix.o
matrix_init_pins                                  .build/obj_custom_parallel_65_via/quantum/matrix.o
matrix_init_user                                  .build/obj_custom_parallel_65_via/quantum/matrix_common.o
matrix_io_delay                                   .build/obj_custom_parallel_65_via/quantum/matrix_common.o
matrix_is_on                                      .build/obj_custom_parallel_65_via/quantum/matrix_common.o
matrix_output_select_delay                        .build/obj_custom_parallel_65_via/quantum/matrix_common.o
                                                  .build/obj_custom_parallel_65_via/quantum/matrix.o
matrix_output_unselect_delay                      .build/obj_custom_parallel_65_via/quantum/matrix_common.o
                                                  .build/obj_custom_parallel_65_via/quantum/matrix.o
matrix_power_down                                 .build/obj_custom_parallel_65_via/platforms/suspend.o
matrix_power_up                                   .build/obj_custom_parallel_65_via/platforms/suspend.o
matrix_print                                      .build/obj_custom_parallel_65_via/quantum/matrix_common.o
                                                  .build/obj_custom_parallel_65_via/quantum/keyboard.o
matrix_read_cols_on_row                           .build/obj_custom_parallel_65_via/quantum/matrix.o
matrix_rows                                       .build/obj_custom_parallel_65_via/quantum/matrix_common.o
matrix_scan                                       .build/obj_custom_parallel_65_via/quantum/matrix.o
                                                  .build/obj_custom_parallel_65_via/quantum/matrix_common.o
                                                  .build/obj_custom_parallel_65_via/platforms/suspend.o
                                                  .build/obj_custom_parallel_65_via/quantum/bootmagic/bootmagic.o
                                                  .build/obj_custom_parallel_65_via/quantum/keyboard.o
matrix_scan_custom                                .build/obj_custom_parallel_65_via/quantum/matrix_common.o
matrix_scan_kb                                    .build/obj_custom_parallel_65_via/quantum/matrix_common.o
                                                  .build/obj_custom_parallel_65_via/quantum/matrix.o
matrix_scan_user                                  .build/obj_custom_parallel_65_via/quantum/matrix_common.o
matrix_setup                                      .build/obj_custom_parallel_65_via/quantum/keyboard.o
mcu_reset                                         .build/obj_custom_parallel_65_via/platforms/avr/bootloaders/dfu.o
                                                  .build/obj_custom_parallel_65_via/quantum/quantum.o
memcmp                                            c:/qmk_msys/mingw64/bin/../lib/gcc/avr/12.2.0/../../../../avr/lib/avr5\libc.a(memcmp.o)
                                                  .build/obj_custom_parallel_65_via/quantum/debounce/sym_defer_g.o
                                                  .build/obj_custom_parallel_65_via/quantum/matrix.o
                                                  .build/obj_custom_parallel_65_via/quantum/action_util.o
memcpy                                            c:/qmk_msys/mingw64/bin/../lib/gcc/avr/12.2.0/../../../../avr/lib/avr5\libc.a(memcpy.o)
                                                  c:/qmk_msys/mingw64/bin/../lib/gcc/avr/12.2.0/../../../../avr/lib/avr5\libc.a(memmove.o)
                                                  .build/obj_custom_parallel_65_via/quantum/rgb_matrix/rgb_matrix.o
                                                  .build/obj_custom_parallel_65_via/quantum/debounce/sym_defer_g.o
memcpy8                                           .build/obj_custom_parallel_65_via/lib/lib8tion/lib8tion.o
memmove                                           c:/qmk_msys/mingw64/bin/../lib/gcc/avr/12.2.0/../../../../avr/lib/avr5\libc.a(memmove.o)
                                                  .build/obj_custom_parallel_65_via/lib/lufa/LUFA/Drivers/USB/Class/Common/HIDParser.o
memmove8                                          .build/obj_custom_parallel_65_via/lib/lib8tion/lib8tion.o
memset                                            c:/qmk_msys/mingw64/bin/../lib/gcc/avr/12.2.0/../../../../avr/lib/avr5\libc.a(memset.o)
                                                  .build/obj_custom_parallel_65_via/quantum/rgb_matrix/rgb_matrix.o
memset8                                           .build/obj_custom_parallel_65_via/lib/lib8tion/lib8tion.o
mk_delay                                          .build/obj_custom_parallel_65_via/quantum/mousekey.o
mk_interval                                       .build/obj_custom_parallel_65_via/quantum/mousekey.o
mk_max_speed                                      .build/obj_custom_parallel_65_via/quantum/mousekey.o
mk_time_to_max                                    .build/obj_custom_parallel_65_via/quantum/mousekey.o
mk_wheel_delay                                    .build/obj_custom_parallel_65_via/quantum/mousekey.o
mk_wheel_interval                                 .build/obj_custom_parallel_65_via/quantum/mousekey.o
mk_wheel_max_speed                                .build/obj_custom_parallel_65_via/quantum/mousekey.o
mk_wheel_time_to_max                              .build/obj_custom_parallel_65_via/quantum/mousekey.o
mod_config                                        .build/obj_custom_parallel_65_via/quantum/keycode_config.o
                                                  .build/obj_custom_parallel_65_via/quantum/keymap_common.o
mousekey_clear                                    .build/obj_custom_parallel_65_via/quantum/mousekey.o
                                                  .build/obj_custom_parallel_65_via/quantum/action.o
mousekey_get_report                               .build/obj_custom_parallel_65_via/quantum/mousekey.o
mousekey_off                                      .build/obj_custom_parallel_65_via/quantum/mousekey.o
                                                  .build/obj_custom_parallel_65_via/quantum/action.o
mousekey_on                                       .build/obj_custom_parallel_65_via/quantum/mousekey.o
                                                  .build/obj_custom_parallel_65_via/quantum/action.o
mousekey_send                                     .build/obj_custom_parallel_65_via/quantum/mousekey.o
                                                  .build/obj_custom_parallel_65_via/quantum/action.o
mousekey_task                                     .build/obj_custom_parallel_65_via/quantum/mousekey.o
                                                  .build/obj_custom_parallel_65_via/quantum/keyboard.o
notify_usb_device_state_change_kb                 .build/obj_custom_parallel_65_via/protocol/usb_device_state.o
notify_usb_device_state_change_user               .build/obj_custom_parallel_65_via/protocol/usb_device_state.o
oneshot_disable                                   .build/obj_custom_parallel_65_via/quantum/action_util.o
                                                  .build/obj_custom_parallel_65_via/quantum/quantum.o
oneshot_enable                                    .build/obj_custom_parallel_65_via/quantum/action_util.o
                                                  .build/obj_custom_parallel_65_via/quantum/quantum.o
oneshot_layer_changed_kb                          .build/obj_custom_parallel_65_via/quantum/action_util.o
oneshot_layer_changed_user                        .build/obj_custom_parallel_65_via/quantum/action_util.o
oneshot_locked_mods_changed_kb                    .build/obj_custom_parallel_65_via/quantum/action_util.o
oneshot_locked_mods_changed_user                  .build/obj_custom_parallel_65_via/quantum/action_util.o
oneshot_mods_changed_kb                           .build/obj_custom_parallel_65_via/quantum/action_util.o
oneshot_mods_changed_user                         .build/obj_custom_parallel_65_via/quantum/action_util.o
oneshot_set                                       .build/obj_custom_parallel_65_via/quantum/action_util.o
oneshot_toggle                                    .build/obj_custom_parallel_65_via/quantum/action_util.o
                                                  .build/obj_custom_parallel_65_via/quantum/quantum.o
peek_matrix                                       .build/obj_custom_parallel_65_via/quantum/matrix_common.o
perform_space_cadet                               .build/obj_custom_parallel_65_via/quantum/process_keycode/process_space_cadet.o
platform_setup                                    .build/obj_custom_parallel_65_via/platforms/avr/platform.o
                                                  .build/obj_custom_parallel_65_via/quantum/main.o
post_process_record_kb                            .build/obj_custom_parallel_65_via/quantum/quantum.o
post_process_record_quantum                       .build/obj_custom_parallel_65_via/quantum/quantum.o
post_process_record_user                          .build/obj_custom_parallel_65_via/quantum/quantum.o
pre_process_record_kb                             .build/obj_custom_parallel_65_via/quantum/quantum.o
pre_process_record_quantum                        .build/obj_custom_parallel_65_via/quantum/quantum.o
                                                  .build/obj_custom_parallel_65_via/quantum/action.o
pre_process_record_user                           .build/obj_custom_parallel_65_via/quantum/quantum.o
print_set_sendchar                                .build/obj_custom_parallel_65_via/platforms/avr/printf.o
                                                  .build/obj_custom_parallel_65_via/quantum/keyboard.o
process_action                                    .build/obj_custom_parallel_65_via/quantum/action.o
process_action_kb                                 .build/obj_custom_parallel_65_via/quantum/quantum.o
process_grave_esc                                 .build/obj_custom_parallel_65_via/quantum/process_keycode/process_grave_esc.o
                                                  .build/obj_custom_parallel_65_via/quantum/quantum.o
process_magic                                     .build/obj_custom_parallel_65_via/quantum/process_keycode/process_magic.o
                                                  .build/obj_custom_parallel_65_via/quantum/quantum.o
process_record                                    .build/obj_custom_parallel_65_via/quantum/action.o
                                                  .build/obj_custom_parallel_65_via/quantum/action_tapping.o
process_record_handler                            .build/obj_custom_parallel_65_via/quantum/action.o
process_record_kb                                 .build/obj_custom_parallel_65_via/quantum/quantum.o
process_record_nocache                            .build/obj_custom_parallel_65_via/quantum/action.o
process_record_quantum                            .build/obj_custom_parallel_65_via/quantum/quantum.o
process_record_tap_hint                           .build/obj_custom_parallel_65_via/quantum/action.o
                                                  .build/obj_custom_parallel_65_via/quantum/action_tapping.o
process_record_user                               .build/obj_custom_parallel_65_via/quantum/quantum.o
process_record_via                                .build/obj_custom_parallel_65_via/quantum/via.o
                                                  .build/obj_custom_parallel_65_via/quantum/quantum.o
process_rgb                                       .build/obj_custom_parallel_65_via/quantum/process_keycode/process_rgb.o
                                                  .build/obj_custom_parallel_65_via/quantum/quantum.o
process_space_cadet                               .build/obj_custom_parallel_65_via/quantum/process_keycode/process_space_cadet.o
                                                  .build/obj_custom_parallel_65_via/quantum/quantum.o
process_tri_layer                                 .build/obj_custom_parallel_65_via/quantum/process_keycode/process_tri_layer.o
                                                  .build/obj_custom_parallel_65_via/quantum/quantum.o
protocol_keyboard_task                            .build/obj_custom_parallel_65_via/quantum/main.o
protocol_post_init                                .build/obj_custom_parallel_65_via/lufa.o
                                                  .build/obj_custom_parallel_65_via/quantum/main.o
protocol_post_task                                .build/obj_custom_parallel_65_via/lufa.o
                                                  .build/obj_custom_parallel_65_via/quantum/main.o
protocol_pre_init                                 .build/obj_custom_parallel_65_via/lufa.o
                                                  .build/obj_custom_parallel_65_via/quantum/main.o
protocol_pre_task                                 .build/obj_custom_parallel_65_via/lufa.o
                                                  .build/obj_custom_parallel_65_via/quantum/main.o
protocol_setup                                    .build/obj_custom_parallel_65_via/lufa.o
                                                  .build/obj_custom_parallel_65_via/quantum/main.o
quantum_init                                      .build/obj_custom_parallel_65_via/quantum/keyboard.o
quantum_task                                      .build/obj_custom_parallel_65_via/quantum/keyboard.o
rand16seed                                        .build/obj_custom_parallel_65_via/lib/lib8tion/lib8tion.o
raw_hid_receive                                   .build/obj_custom_parallel_65_via/quantum/via.o
raw_hid_send                                      .build/obj_custom_parallel_65_via/lufa.o
                                                  .build/obj_custom_parallel_65_via/quantum/via.o
raw_hid_task                                      .build/obj_custom_parallel_65_via/lufa.o
                                                  .build/obj_custom_parallel_65_via/quantum/main.o
raw_matrix                                        .build/obj_custom_parallel_65_via/quantum/matrix_common.o
                                                  .build/obj_custom_parallel_65_via/quantum/matrix.o
read_source_layers_cache                          .build/obj_custom_parallel_65_via/quantum/action_layer.o
                                                  .build/obj_custom_parallel_65_via/quantum/quantum.o
read_source_layers_cache_impl                     .build/obj_custom_parallel_65_via/quantum/action_layer.o
register_code                                     .build/obj_custom_parallel_65_via/quantum/action.o
                                                  .build/obj_custom_parallel_65_via/quantum/send_string/send_string.o
                                                  .build/obj_custom_parallel_65_via/quantum/quantum.o
register_code16                                   .build/obj_custom_parallel_65_via/quantum/quantum.o
register_mods                                     .build/obj_custom_parallel_65_via/quantum/action.o
                                                  .build/obj_custom_parallel_65_via/quantum/process_keycode/process_space_cadet.o
                                                  .build/obj_custom_parallel_65_via/quantum/quantum.o
register_mouse                                    .build/obj_custom_parallel_65_via/quantum/action.o
register_weak_mods                                .build/obj_custom_parallel_65_via/quantum/action.o
                                                  .build/obj_custom_parallel_65_via/quantum/quantum.o
reset_key                                         .build/obj_custom_parallel_65_via/platforms/avr/bootloaders/dfu.o
reset_keyboard                                    .build/obj_custom_parallel_65_via/quantum/quantum.o
reset_oneshot_layer                               .build/obj_custom_parallel_65_via/quantum/action_util.o
reset_space_cadet                                 .build/obj_custom_parallel_65_via/quantum/process_keycode/process_space_cadet.o
rgb_matrix_config                                 .build/obj_custom_parallel_65_via/quantum/rgb_matrix/rgb_matrix.o
rgb_matrix_decrease_hue                           .build/obj_custom_parallel_65_via/quantum/rgb_matrix/rgb_matrix.o
                                                  .build/obj_custom_parallel_65_via/quantum/process_keycode/process_rgb.o
rgb_matrix_decrease_hue_helper                    .build/obj_custom_parallel_65_via/quantum/rgb_matrix/rgb_matrix.o
rgb_matrix_decrease_hue_noeeprom                  .build/obj_custom_parallel_65_via/quantum/rgb_matrix/rgb_matrix.o
rgb_matrix_decrease_sat                           .build/obj_custom_parallel_65_via/quantum/rgb_matrix/rgb_matrix.o
                                                  .build/obj_custom_parallel_65_via/quantum/process_keycode/process_rgb.o
rgb_matrix_decrease_sat_helper                    .build/obj_custom_parallel_65_via/quantum/rgb_matrix/rgb_matrix.o
rgb_matrix_decrease_sat_noeeprom                  .build/obj_custom_parallel_65_via/quantum/rgb_matrix/rgb_matrix.o
rgb_matrix_decrease_speed                         .build/obj_custom_parallel_65_via/quantum/rgb_matrix/rgb_matrix.o
                                                  .build/obj_custom_parallel_65_via/quantum/process_keycode/process_rgb.o
rgb_matrix_decrease_speed_helper                  .build/obj_custom_parallel_65_via/quantum/rgb_matrix/rgb_matrix.o
rgb_matrix_decrease_speed_noeeprom                .build/obj_custom_parallel_65_via/quantum/rgb_matrix/rgb_matrix.o
rgb_matrix_decrease_val                           .build/obj_custom_parallel_65_via/quantum/rgb_matrix/rgb_matrix.o
                                                  .build/obj_custom_parallel_65_via/quantum/process_keycode/process_rgb.o
rgb_matrix_decrease_val_helper                    .build/obj_custom_parallel_65_via/quantum/rgb_matrix/rgb_matrix.o
rgb_matrix_decrease_val_noeeprom                  .build/obj_custom_parallel_65_via/quantum/rgb_matrix/rgb_matrix.o
rgb_matrix_disable                                .build/obj_custom_parallel_65_via/quantum/rgb_matrix/rgb_matrix.o
rgb_matrix_disable_noeeprom                       .build/obj_custom_parallel_65_via/quantum/rgb_matrix/rgb_matrix.o
                                                  .build/obj_custom_parallel_65_via/quantum/via.o
rgb_matrix_driver                                 .build/obj_custom_parallel_65_via/quantum/rgb_matrix/rgb_matrix_drivers.o
                                                  .build/obj_custom_parallel_65_via/quantum/rgb_matrix/rgb_matrix.o
rgb_matrix_enable                                 .build/obj_custom_parallel_65_via/quantum/rgb_matrix/rgb_matrix.o
rgb_matrix_enable_noeeprom                        .build/obj_custom_parallel_65_via/quantum/rgb_matrix/rgb_matrix.o
                                                  .build/obj_custom_parallel_65_via/quantum/via.o
rgb_matrix_get_flags                              .build/obj_custom_parallel_65_via/quantum/rgb_matrix/rgb_matrix.o
rgb_matrix_get_hsv                                .build/obj_custom_parallel_65_via/quantum/rgb_matrix/rgb_matrix.o
rgb_matrix_get_hue                                .build/obj_custom_parallel_65_via/quantum/rgb_matrix/rgb_matrix.o
                                                  .build/obj_custom_parallel_65_via/quantum/via.o
rgb_matrix_get_limits                             .build/obj_custom_parallel_65_via/quantum/rgb_matrix/rgb_matrix.o
rgb_matrix_get_mode                               .build/obj_custom_parallel_65_via/quantum/rgb_matrix/rgb_matrix.o
                                                  .build/obj_custom_parallel_65_via/quantum/via.o
rgb_matrix_get_sat                                .build/obj_custom_parallel_65_via/quantum/rgb_matrix/rgb_matrix.o
                                                  .build/obj_custom_parallel_65_via/quantum/via.o
rgb_matrix_get_speed                              .build/obj_custom_parallel_65_via/quantum/rgb_matrix/rgb_matrix.o
                                                  .build/obj_custom_parallel_65_via/quantum/via.o
rgb_matrix_get_suspend_state                      .build/obj_custom_parallel_65_via/quantum/rgb_matrix/rgb_matrix.o
rgb_matrix_get_val                                .build/obj_custom_parallel_65_via/quantum/rgb_matrix/rgb_matrix.o
                                                  .build/obj_custom_parallel_65_via/quantum/via.o
rgb_matrix_handle_key_event                       .build/obj_custom_parallel_65_via/quantum/rgb_matrix/rgb_matrix.o
                                                  .build/obj_custom_parallel_65_via/quantum/keyboard.o
rgb_matrix_hsv_to_rgb                             .build/obj_custom_parallel_65_via/quantum/rgb_matrix/rgb_matrix.o
rgb_matrix_increase_hue                           .build/obj_custom_parallel_65_via/quantum/rgb_matrix/rgb_matrix.o
                                                  .build/obj_custom_parallel_65_via/quantum/process_keycode/process_rgb.o
rgb_matrix_increase_hue_helper                    .build/obj_custom_parallel_65_via/quantum/rgb_matrix/rgb_matrix.o
rgb_matrix_increase_hue_noeeprom                  .build/obj_custom_parallel_65_via/quantum/rgb_matrix/rgb_matrix.o
rgb_matrix_increase_sat                           .build/obj_custom_parallel_65_via/quantum/rgb_matrix/rgb_matrix.o
                                                  .build/obj_custom_parallel_65_via/quantum/process_keycode/process_rgb.o
rgb_matrix_increase_sat_helper                    .build/obj_custom_parallel_65_via/quantum/rgb_matrix/rgb_matrix.o
rgb_matrix_increase_sat_noeeprom                  .build/obj_custom_parallel_65_via/quantum/rgb_matrix/rgb_matrix.o
rgb_matrix_increase_speed                         .build/obj_custom_parallel_65_via/quantum/rgb_matrix/rgb_matrix.o
                                                  .build/obj_custom_parallel_65_via/quantum/process_keycode/process_rgb.o
rgb_matrix_increase_speed_helper                  .build/obj_custom_parallel_65_via/quantum/rgb_matrix/rgb_matrix.o
rgb_matrix_increase_speed_noeeprom                .build/obj_custom_parallel_65_via/quantum/rgb_matrix/rgb_matrix.o
rgb_matrix_increase_val                           .build/obj_custom_parallel_65_via/quantum/rgb_matrix/rgb_matrix.o
                                                  .build/obj_custom_parallel_65_via/quantum/process_keycode/process_rgb.o
rgb_matrix_increase_val_helper                    .build/obj_custom_parallel_65_via/quantum/rgb_matrix/rgb_matrix.o
rgb_matrix_increase_val_noeeprom                  .build/obj_custom_parallel_65_via/quantum/rgb_matrix/rgb_matrix.o
rgb_matrix_indicators                             .build/obj_custom_parallel_65_via/quantum/rgb_matrix/rgb_matrix.o
rgb_matrix_indicators_advanced                    .build/obj_custom_parallel_65_via/quantum/rgb_matrix/rgb_matrix.o
rgb_matrix_indicators_advanced_kb                 .build/obj_custom_parallel_65_via/quantum/rgb_matrix/rgb_matrix.o
rgb_matrix_indicators_advanced_user               .build/obj_custom_parallel_65_via/quantum/rgb_matrix/rgb_matrix.o
rgb_matrix_indicators_kb                          .build/obj_custom_parallel_65_via/quantum/rgb_matrix/rgb_matrix.o
rgb_matrix_indicators_user                        .build/obj_custom_parallel_65_via/quantum/rgb_matrix/rgb_matrix.o
rgb_matrix_init                                   .build/obj_custom_parallel_65_via/quantum/rgb_matrix/rgb_matrix.o
                                                  .build/obj_custom_parallel_65_via/quantum/keyboard.o
rgb_matrix_is_enabled                             .build/obj_custom_parallel_65_via/quantum/rgb_matrix/rgb_matrix.o
                                                  .build/obj_custom_parallel_65_via/quantum/via.o
rgb_matrix_map_row_column_to_led                  .build/obj_custom_parallel_65_via/quantum/rgb_matrix/rgb_matrix.o
rgb_matrix_map_row_column_to_led_kb               .build/obj_custom_parallel_65_via/quantum/rgb_matrix/rgb_matrix.o
rgb_matrix_mode                                   .build/obj_custom_parallel_65_via/quantum/rgb_matrix/rgb_matrix.o
                                                  .build/obj_custom_parallel_65_via/quantum/process_keycode/process_rgb.o
rgb_matrix_mode_eeprom_helper                     .build/obj_custom_parallel_65_via/quantum/rgb_matrix/rgb_matrix.o
rgb_matrix_mode_noeeprom                          .build/obj_custom_parallel_65_via/quantum/rgb_matrix/rgb_matrix.o
                                                  .build/obj_custom_parallel_65_via/quantum/via.o
rgb_matrix_reload_from_eeprom                     .build/obj_custom_parallel_65_via/quantum/rgb_matrix/rgb_matrix.o
rgb_matrix_set_color                              .build/obj_custom_parallel_65_via/quantum/rgb_matrix/rgb_matrix.o
rgb_matrix_set_color_all                          .build/obj_custom_parallel_65_via/quantum/rgb_matrix/rgb_matrix.o
rgb_matrix_set_flags                              .build/obj_custom_parallel_65_via/quantum/rgb_matrix/rgb_matrix.o
rgb_matrix_set_flags_eeprom_helper                .build/obj_custom_parallel_65_via/quantum/rgb_matrix/rgb_matrix.o
rgb_matrix_set_flags_noeeprom                     .build/obj_custom_parallel_65_via/quantum/rgb_matrix/rgb_matrix.o
rgb_matrix_set_speed                              .build/obj_custom_parallel_65_via/quantum/rgb_matrix/rgb_matrix.o
rgb_matrix_set_speed_eeprom_helper                .build/obj_custom_parallel_65_via/quantum/rgb_matrix/rgb_matrix.o
rgb_matrix_set_speed_noeeprom                     .build/obj_custom_parallel_65_via/quantum/rgb_matrix/rgb_matrix.o
                                                  .build/obj_custom_parallel_65_via/quantum/via.o
rgb_matrix_set_suspend_state                      .build/obj_custom_parallel_65_via/quantum/rgb_matrix/rgb_matrix.o
                                                  .build/obj_custom_parallel_65_via/quantum/quantum.o
rgb_matrix_sethsv                                 .build/obj_custom_parallel_65_via/quantum/rgb_matrix/rgb_matrix.o
rgb_matrix_sethsv_eeprom_helper                   .build/obj_custom_parallel_65_via/quantum/rgb_matrix/rgb_matrix.o
rgb_matrix_sethsv_noeeprom                        .build/obj_custom_parallel_65_via/quantum/rgb_matrix/rgb_matrix.o
                                                  .build/obj_custom_parallel_65_via/quantum/via.o
rgb_matrix_step                                   .build/obj_custom_parallel_65_via/quantum/rgb_matrix/rgb_matrix.o
                                                  .build/obj_custom_parallel_65_via/quantum/process_keycode/process_rgb.o
rgb_matrix_step_helper                            .build/obj_custom_parallel_65_via/quantum/rgb_matrix/rgb_matrix.o
rgb_matrix_step_noeeprom                          .build/obj_custom_parallel_65_via/quantum/rgb_matrix/rgb_matrix.o
rgb_matrix_step_reverse                           .build/obj_custom_parallel_65_via/quantum/rgb_matrix/rgb_matrix.o
                                                  .build/obj_custom_parallel_65_via/quantum/process_keycode/process_rgb.o
rgb_matrix_step_reverse_helper                    .build/obj_custom_parallel_65_via/quantum/rgb_matrix/rgb_matrix.o
rgb_matrix_step_reverse_noeeprom                  .build/obj_custom_parallel_65_via/quantum/rgb_matrix/rgb_matrix.o
rgb_matrix_task                                   .build/obj_custom_parallel_65_via/quantum/rgb_matrix/rgb_matrix.o
                                                  .build/obj_custom_parallel_65_via/quantum/keyboard.o
                                                  .build/obj_custom_parallel_65_via/quantum/quantum.o
rgb_matrix_test                                   .build/obj_custom_parallel_65_via/quantum/rgb_matrix/rgb_matrix.o
rgb_matrix_toggle                                 .build/obj_custom_parallel_65_via/quantum/rgb_matrix/rgb_matrix.o
                                                  .build/obj_custom_parallel_65_via/quantum/process_keycode/process_rgb.o
rgb_matrix_toggle_eeprom_helper                   .build/obj_custom_parallel_65_via/quantum/rgb_matrix/rgb_matrix.o
rgb_matrix_toggle_noeeprom                        .build/obj_custom_parallel_65_via/quantum/rgb_matrix/rgb_matrix.o
                                                  .build/obj_custom_parallel_65_via/quantum/via.o
rgb_matrix_update_pwm_buffers                     .build/obj_custom_parallel_65_via/quantum/rgb_matrix/rgb_matrix.o
rgb_matrix_ws2812_array                           .build/obj_custom_parallel_65_via/quantum/rgb_matrix/rgb_matrix_drivers.o
send_6kro_report                                  .build/obj_custom_parallel_65_via/quantum/action_util.o
send_byte                                         .build/obj_custom_parallel_65_via/quantum/send_string/send_string.o
send_char                                         .build/obj_custom_parallel_65_via/quantum/send_string/send_string.o
send_char_with_delay                              .build/obj_custom_parallel_65_via/quantum/send_string/send_string.o
send_digitizer                                    .build/obj_custom_parallel_65_via/lufa.o
                                                  .build/obj_custom_parallel_65_via/protocol/host.o
send_dword                                        .build/obj_custom_parallel_65_via/quantum/send_string/send_string.o
send_joystick                                     .build/obj_custom_parallel_65_via/lufa.o
                                                  .build/obj_custom_parallel_65_via/protocol/host.o
send_keyboard_report                              .build/obj_custom_parallel_65_via/quantum/action_util.o
                                                  .build/obj_custom_parallel_65_via/quantum/process_keycode/process_grave_esc.o
                                                  .build/obj_custom_parallel_65_via/quantum/action.o
send_nibble                                       .build/obj_custom_parallel_65_via/quantum/send_string/send_string.o
send_programmable_button                          .build/obj_custom_parallel_65_via/lufa.o
                                                  .build/obj_custom_parallel_65_via/protocol/host.o
send_report                                       .build/obj_custom_parallel_65_via/lufa.o
send_string                                       .build/obj_custom_parallel_65_via/quantum/send_string/send_string.o
send_string_P                                     .build/obj_custom_parallel_65_via/quantum/send_string/send_string.o
send_string_with_delay                            .build/obj_custom_parallel_65_via/quantum/send_string/send_string.o
                                                  .build/obj_custom_parallel_65_via/quantum/dynamic_keymap.o
send_string_with_delay_P                          .build/obj_custom_parallel_65_via/quantum/send_string/send_string.o
send_word                                         .build/obj_custom_parallel_65_via/quantum/send_string/send_string.o
sendchar                                          .build/obj_custom_parallel_65_via/quantum/logging/sendchar.o
                                                  .build/obj_custom_parallel_65_via/quantum/keyboard.o
set_activity_timestamps                           .build/obj_custom_parallel_65_via/quantum/keyboard.o
set_mods                                          .build/obj_custom_parallel_65_via/quantum/action_util.o
set_oneshot_layer                                 .build/obj_custom_parallel_65_via/quantum/action_util.o
                                                  .build/obj_custom_parallel_65_via/quantum/action.o
set_oneshot_locked_mods                           .build/obj_custom_parallel_65_via/quantum/action_util.o
set_oneshot_mods                                  .build/obj_custom_parallel_65_via/quantum/action_util.o
set_single_persistent_default_layer               .build/obj_custom_parallel_65_via/quantum/quantum.o
set_tri_layer_adjust_layer                        .build/obj_custom_parallel_65_via/quantum/tri_layer.o
set_tri_layer_layers                              .build/obj_custom_parallel_65_via/quantum/tri_layer.o
set_tri_layer_lower_layer                         .build/obj_custom_parallel_65_via/quantum/tri_layer.o
set_tri_layer_upper_layer                         .build/obj_custom_parallel_65_via/quantum/tri_layer.o
set_weak_mods                                     .build/obj_custom_parallel_65_via/quantum/action_util.o
should_mousekey_report_send                       .build/obj_custom_parallel_65_via/quantum/mousekey.o
should_process_keypress                           .build/obj_custom_parallel_65_via/quantum/keyboard.o
shutdown_kb                                       .build/obj_custom_parallel_65_via/quantum/quantum.o
shutdown_quantum                                  .build/obj_custom_parallel_65_via/quantum/quantum.o
shutdown_user                                     .build/obj_custom_parallel_65_via/quantum/quantum.o
soft_reset_keyboard                               .build/obj_custom_parallel_65_via/quantum/quantum.o
source_layers_cache                               .build/obj_custom_parallel_65_via/quantum/action_layer.o
store_or_get_action                               .build/obj_custom_parallel_65_via/quantum/action_layer.o
                                                  .build/obj_custom_parallel_65_via/quantum/action.o
suspend_power_down                                .build/obj_custom_parallel_65_via/platforms/avr/suspend.o
                                                  .build/obj_custom_parallel_65_via/lufa.o
suspend_power_down_kb                             .build/obj_custom_parallel_65_via/platforms/suspend.o
                                                  .build/obj_custom_parallel_65_via/quantum/quantum.o
suspend_power_down_quantum                        .build/obj_custom_parallel_65_via/quantum/quantum.o
                                                  .build/obj_custom_parallel_65_via/platforms/avr/suspend.o
suspend_power_down_user                           .build/obj_custom_parallel_65_via/platforms/suspend.o
suspend_wakeup_condition                          .build/obj_custom_parallel_65_via/platforms/suspend.o
                                                  .build/obj_custom_parallel_65_via/lufa.o
suspend_wakeup_init                               .build/obj_custom_parallel_65_via/platforms/avr/suspend.o
                                                  .build/obj_custom_parallel_65_via/lufa.o
suspend_wakeup_init_kb                            .build/obj_custom_parallel_65_via/platforms/suspend.o
                                                  .build/obj_custom_parallel_65_via/quantum/quantum.o
suspend_wakeup_init_quantum                       .build/obj_custom_parallel_65_via/quantum/quantum.o
                                                  .build/obj_custom_parallel_65_via/platforms/avr/suspend.o
suspend_wakeup_init_user                          .build/obj_custom_parallel_65_via/platforms/suspend.o
switch_events                                     .build/obj_custom_parallel_65_via/quantum/keyboard.o
tap_code                                          .build/obj_custom_parallel_65_via/quantum/action.o
                                                  .build/obj_custom_parallel_65_via/quantum/process_keycode/process_space_cadet.o
                                                  .build/obj_custom_parallel_65_via/quantum/send_string/send_string.o
tap_code16                                        .build/obj_custom_parallel_65_via/quantum/quantum.o
tap_code16_delay                                  .build/obj_custom_parallel_65_via/quantum/quantum.o
tap_code_delay                                    .build/obj_custom_parallel_65_via/quantum/action.o
                                                  .build/obj_custom_parallel_65_via/quantum/send_string/send_string.o
tap_random_base64                                 .build/obj_custom_parallel_65_via/quantum/send_string/send_string.o
timer_clear                                       .build/obj_custom_parallel_65_via/platforms/avr/timer.o
timer_count                                       .build/obj_custom_parallel_65_via/platforms/avr/timer.o
                                                  .build/obj_custom_parallel_65_via/platforms/avr/suspend.o
timer_elapsed                                     .build/obj_custom_parallel_65_via/platforms/avr/timer.o
                                                  .build/obj_custom_parallel_65_via/platforms/timer.o
                                                  .build/obj_custom_parallel_65_via/quantum/process_keycode/process_space_cadet.o
                                                  .build/obj_custom_parallel_65_via/quantum/mousekey.o
                                                  .build/obj_custom_parallel_65_via/quantum/debounce/sym_defer_g.o
timer_elapsed32                                   .build/obj_custom_parallel_65_via/platforms/avr/timer.o
                                                  .build/obj_custom_parallel_65_via/quantum/rgb_matrix/rgb_matrix.o
                                                  .build/obj_custom_parallel_65_via/quantum/keyboard.o
                                                  .build/obj_custom_parallel_65_via/quantum/led.o
timer_elapsed_fast                                .build/obj_custom_parallel_65_via/platforms/timer.o
timer_init                                        .build/obj_custom_parallel_65_via/platforms/avr/timer.o
                                                  .build/obj_custom_parallel_65_via/quantum/keyboard.o
timer_read                                        .build/obj_custom_parallel_65_via/platforms/avr/timer.o
                                                  .build/obj_custom_parallel_65_via/platforms/timer.o
                                                  .build/obj_custom_parallel_65_via/quantum/process_keycode/process_space_cadet.o
                                                  .build/obj_custom_parallel_65_via/quantum/mousekey.o
                                                  .build/obj_custom_parallel_65_via/quantum/debounce/sym_defer_g.o
                                                  .build/obj_custom_parallel_65_via/quantum/keyboard.o
timer_read32                                      .build/obj_custom_parallel_65_via/platforms/avr/timer.o
                                                  .build/obj_custom_parallel_65_via/quantum/via.o
                                                  .build/obj_custom_parallel_65_via/quantum/rgb_matrix/rgb_matrix.o
                                                  .build/obj_custom_parallel_65_via/quantum/keyboard.o
                                                  .build/obj_custom_parallel_65_via/quantum/led.o
timer_read_fast                                   .build/obj_custom_parallel_65_via/platforms/timer.o
tp_buttons                                        .build/obj_custom_parallel_65_via/quantum/action.o
unregister_code                                   .build/obj_custom_parallel_65_via/quantum/action.o
                                                  .build/obj_custom_parallel_65_via/quantum/send_string/send_string.o
                                                  .build/obj_custom_parallel_65_via/quantum/quantum.o
unregister_code16                                 .build/obj_custom_parallel_65_via/quantum/quantum.o
unregister_mods                                   .build/obj_custom_parallel_65_via/quantum/action.o
                                                  .build/obj_custom_parallel_65_via/quantum/process_keycode/process_space_cadet.o
                                                  .build/obj_custom_parallel_65_via/quantum/quantum.o
unregister_weak_mods                              .build/obj_custom_parallel_65_via/quantum/action.o
                                                  .build/obj_custom_parallel_65_via/quantum/quantum.o
update_source_layers_cache                        .build/obj_custom_parallel_65_via/quantum/action_layer.o
                                                  .build/obj_custom_parallel_65_via/quantum/quantum.o
update_source_layers_cache_impl                   .build/obj_custom_parallel_65_via/quantum/action_layer.o
update_tri_layer                                  .build/obj_custom_parallel_65_via/quantum/action_layer.o
                                                  .build/obj_custom_parallel_65_via/quantum/process_keycode/process_tri_layer.o
update_tri_layer_state                            .build/obj_custom_parallel_65_via/quantum/action_layer.o
usb_connected_state                               .build/obj_custom_parallel_65_via/protocol/lufa/usb_util.o
                                                  .build/obj_custom_parallel_65_via/protocol/usb_util.o
usb_device_state                                  .build/obj_custom_parallel_65_via/protocol/usb_device_state.o
usb_device_state_init                             .build/obj_custom_parallel_65_via/protocol/usb_device_state.o
                                                  .build/obj_custom_parallel_65_via/lufa.o
usb_device_state_set_configuration                .build/obj_custom_parallel_65_via/protocol/usb_device_state.o
                                                  .build/obj_custom_parallel_65_via/lufa.o
usb_device_state_set_reset                        .build/obj_custom_parallel_65_via/protocol/usb_device_state.o
                                                  .build/obj_custom_parallel_65_via/lufa.o
usb_device_state_set_resume                       .build/obj_custom_parallel_65_via/protocol/usb_device_state.o
                                                  .build/obj_custom_parallel_65_via/lufa.o
usb_device_state_set_suspend                      .build/obj_custom_parallel_65_via/protocol/usb_device_state.o
                                                  .build/obj_custom_parallel_65_via/lufa.o
usb_disconnect                                    .build/obj_custom_parallel_65_via/protocol/lufa/usb_util.o
                                                  .build/obj_custom_parallel_65_via/protocol/usb_util.o
usb_vbus_state                                    .build/obj_custom_parallel_65_via/protocol/lufa/usb_util.o
                                                  .build/obj_custom_parallel_65_via/protocol/usb_util.o
via_command_kb                                    .build/obj_custom_parallel_65_via/quantum/via.o
via_custom_value_command                          .build/obj_custom_parallel_65_via/quantum/via.o
via_custom_value_command_kb                       .build/obj_custom_parallel_65_via/quantum/via.o
via_eeprom_is_valid                               .build/obj_custom_parallel_65_via/quantum/via.o
                                                  .build/obj_custom_parallel_65_via/quantum/eeconfig.o
via_eeprom_set_valid                              .build/obj_custom_parallel_65_via/quantum/via.o
                                                  .build/obj_custom_parallel_65_via/quantum/eeconfig.o
via_get_layout_options                            .build/obj_custom_parallel_65_via/quantum/via.o
via_init                                          .build/obj_custom_parallel_65_via/quantum/via.o
                                                  .build/obj_custom_parallel_65_via/quantum/keyboard.o
via_init_kb                                       .build/obj_custom_parallel_65_via/quantum/via.o
via_qmk_rgb_matrix_command                        .build/obj_custom_parallel_65_via/quantum/via.o
via_qmk_rgb_matrix_get_value                      .build/obj_custom_parallel_65_via/quantum/via.o
via_qmk_rgb_matrix_save                           .build/obj_custom_parallel_65_via/quantum/via.o
via_qmk_rgb_matrix_set_value                      .build/obj_custom_parallel_65_via/quantum/via.o
via_set_device_indication                         .build/obj_custom_parallel_65_via/quantum/via.o
via_set_layout_options                            .build/obj_custom_parallel_65_via/quantum/via.o
via_set_layout_options_kb                         .build/obj_custom_parallel_65_via/quantum/via.o
ws2812_dirty                                      .build/obj_custom_parallel_65_via/quantum/rgb_matrix/rgb_matrix_drivers.o
ws2812_init                                       .build/obj_custom_parallel_65_via/ws2812_bitbang.o
                                                  .build/obj_custom_parallel_65_via/quantum/rgb_matrix/rgb_matrix_drivers.o
ws2812_setleds                                    .build/obj_custom_parallel_65_via/ws2812_bitbang.o
                                                  .build/obj_custom_parallel_65_via/quantum/rgb_matrix/rgb_matrix_drivers.o
xfunc_out                                         .build/obj_custom_parallel_65_via/platforms/avr/xprintf.o
                                                  .build/obj_custom_parallel_65_via/platforms/avr/printf.o
xitoa                                             .build/obj_custom_parallel_65_via/platforms/avr/xprintf.o
xputc                                             .build/obj_custom_parallel_65_via/platforms/avr/xprintf.o
xputs                                             .build/obj_custom_parallel_65_via/platforms/avr/xprintf.o
